	.file	"bignum.c"
	.text
.Ltext0:
	.globl	biguint_set
	.type	biguint_set, @function
biguint_set:
.LVL0:
.LFB22:
	.file 1 "src/bignum.c"
	.loc 1 5 1 view -0
	.cfi_startproc
	.loc 1 5 1 is_stmt 0 view .LVU1
	movq	%rdi, %rax
	.loc 1 6 5 is_stmt 1 view .LVU2
	.loc 1 6 20 is_stmt 0 view .LVU3
	movq	(%rsi), %rdx
	.loc 1 6 15 view .LVU4
	movq	%rdx, (%rdi)
	.loc 1 7 20 view .LVU5
	movq	8(%rsi), %rdx
	.loc 1 7 15 view .LVU6
	movq	%rdx, 8(%rdi)
	.loc 1 8 20 view .LVU7
	movq	16(%rsi), %rdx
	.loc 1 8 15 view .LVU8
	movq	%rdx, 16(%rdi)
	.loc 1 9 20 view .LVU9
	movq	24(%rsi), %rdx
	.loc 1 9 15 view .LVU10
	movq	%rdx, 24(%rdi)
	.loc 1 10 20 view .LVU11
	movq	32(%rsi), %rdx
	.loc 1 10 15 view .LVU12
	movq	%rdx, 32(%rdi)
	.loc 1 11 20 view .LVU13
	movq	40(%rsi), %rdx
	.loc 1 11 15 view .LVU14
	movq	%rdx, 40(%rdi)
	.loc 1 13 5 is_stmt 1 view .LVU15
	.loc 1 14 1 is_stmt 0 view .LVU16
	ret
	.cfi_endproc
.LFE22:
	.size	biguint_set, .-biguint_set
	.globl	biguint_not
	.type	biguint_not, @function
biguint_not:
.LVL1:
.LFB23:
	.loc 1 18 1 is_stmt 1 view -0
	.cfi_startproc
	.loc 1 18 1 is_stmt 0 view .LVU18
	movq	%rdi, %rax
	.loc 1 19 5 is_stmt 1 view .LVU19
	.loc 1 19 16 is_stmt 0 view .LVU20
	movq	(%rsi), %rdx
	notq	%rdx
	.loc 1 19 14 view .LVU21
	movq	%rdx, (%rdi)
	.loc 1 20 16 view .LVU22
	movq	8(%rsi), %rdx
	notq	%rdx
	.loc 1 20 14 view .LVU23
	movq	%rdx, 8(%rdi)
	.loc 1 21 16 view .LVU24
	movq	16(%rsi), %rdx
	notq	%rdx
	.loc 1 21 14 view .LVU25
	movq	%rdx, 16(%rdi)
	.loc 1 22 16 view .LVU26
	movq	24(%rsi), %rdx
	notq	%rdx
	.loc 1 22 14 view .LVU27
	movq	%rdx, 24(%rdi)
	.loc 1 23 16 view .LVU28
	movq	32(%rsi), %rdx
	notq	%rdx
	.loc 1 23 14 view .LVU29
	movq	%rdx, 32(%rdi)
	.loc 1 24 20 view .LVU30
	movq	40(%rsi), %rdx
	.loc 1 24 16 view .LVU31
	notq	%rdx
	.loc 1 24 14 view .LVU32
	movq	%rdx, 40(%rdi)
	.loc 1 26 5 is_stmt 1 view .LVU33
	.loc 1 27 1 is_stmt 0 view .LVU34
	ret
	.cfi_endproc
.LFE23:
	.size	biguint_not, .-biguint_not
	.globl	biguint_bar
	.type	biguint_bar, @function
biguint_bar:
.LVL2:
.LFB24:
	.loc 1 29 1 is_stmt 1 view -0
	.cfi_startproc
	.loc 1 29 1 is_stmt 0 view .LVU36
	movq	%rdi, %rax
	.loc 1 30 5 is_stmt 1 view .LVU37
	.loc 1 30 32 is_stmt 0 view .LVU38
	movq	8(%rsi), %rdx
	.loc 1 30 26 view .LVU39
	orq	(%rsi), %rdx
	.loc 1 30 38 view .LVU40
	orq	16(%rsi), %rdx
	.loc 1 30 50 view .LVU41
	orq	24(%rsi), %rdx
	.loc 1 30 62 view .LVU42
	orq	32(%rsi), %rdx
	.loc 1 30 74 view .LVU43
	orq	40(%rsi), %rdx
	sete	%dl
	movzbl	%dl, %edx
	.loc 1 30 14 view .LVU44
	movq	%rdx, 40(%rdi)
	.loc 1 31 5 is_stmt 1 view .LVU45
	.loc 1 31 58 is_stmt 0 view .LVU46
	movq	$0, 32(%rdi)
	.loc 1 31 47 view .LVU47
	movq	$0, 24(%rdi)
	.loc 1 31 36 view .LVU48
	movq	$0, 16(%rdi)
	.loc 1 31 25 view .LVU49
	movq	$0, 8(%rdi)
	.loc 1 31 14 view .LVU50
	movq	$0, (%rdi)
	.loc 1 33 5 is_stmt 1 view .LVU51
	.loc 1 34 1 is_stmt 0 view .LVU52
	ret
	.cfi_endproc
.LFE24:
	.size	biguint_bar, .-biguint_bar
	.globl	biguint_neg
	.type	biguint_neg, @function
biguint_neg:
.LVL3:
.LFB25:
	.loc 1 36 1 is_stmt 1 view -0
	.cfi_startproc
	.loc 1 39 5 view .LVU54
	.loc 1 39 16 is_stmt 0 view .LVU55
	movq	(%rsi), %r9
	notq	%r9
	.loc 1 39 14 view .LVU56
	movq	%r9, (%rdi)
	.loc 1 40 16 view .LVU57
	movq	8(%rsi), %r8
	notq	%r8
	.loc 1 40 14 view .LVU58
	movq	%r8, 8(%rdi)
	.loc 1 41 16 view .LVU59
	movq	16(%rsi), %r10
	notq	%r10
	.loc 1 41 14 view .LVU60
	movq	%r10, 16(%rdi)
	.loc 1 42 16 view .LVU61
	movq	24(%rsi), %rdx
	notq	%rdx
	.loc 1 42 14 view .LVU62
	movq	%rdx, 24(%rdi)
	.loc 1 43 16 view .LVU63
	movq	32(%rsi), %rcx
	notq	%rcx
	.loc 1 43 14 view .LVU64
	movq	%rcx, 32(%rdi)
	.loc 1 44 20 view .LVU65
	movq	40(%rsi), %rax
	.loc 1 44 16 view .LVU66
	notq	%rax
	.loc 1 44 14 view .LVU67
	movq	%rax, 40(%rdi)
	.loc 1 46 5 is_stmt 1 view .LVU68
	.loc 1 46 13 is_stmt 0 view .LVU69
	addq	$1, %rax
	movq	%rax, 40(%rdi)
	.loc 1 47 5 is_stmt 1 view .LVU70
	.loc 1 47 17 is_stmt 0 view .LVU71
	sete	%sil
.LVL4:
	.loc 1 47 17 view .LVU72
	movzbl	%sil, %esi
	.loc 1 47 14 view .LVU73
	addq	%rsi, %rcx
	movq	%rcx, 32(%rdi)
	.loc 1 48 5 is_stmt 1 view .LVU74
	.loc 1 48 27 is_stmt 0 view .LVU75
	orq	%rcx, %rax
	sete	%cl
	movzbl	%cl, %ecx
	.loc 1 48 14 view .LVU76
	addq	%rcx, %rdx
	movq	%rdx, 24(%rdi)
	.loc 1 49 5 is_stmt 1 view .LVU77
	.loc 1 49 39 is_stmt 0 view .LVU78
	orq	%rdx, %rax
	sete	%dl
	movzbl	%dl, %edx
	.loc 1 49 14 view .LVU79
	addq	%r10, %rdx
	movq	%rdx, 16(%rdi)
	.loc 1 50 5 is_stmt 1 view .LVU80
	.loc 1 50 51 is_stmt 0 view .LVU81
	orq	%rdx, %rax
	sete	%dl
	movzbl	%dl, %edx
	.loc 1 50 14 view .LVU82
	addq	%rdx, %r8
	movq	%r8, 8(%rdi)
	.loc 1 51 5 is_stmt 1 view .LVU83
	.loc 1 51 63 is_stmt 0 view .LVU84
	orq	%r8, %rax
	sete	%al
	movzbl	%al, %eax
	.loc 1 51 14 view .LVU85
	addq	%rax, %r9
	movq	%r9, (%rdi)
	.loc 1 53 5 is_stmt 1 view .LVU86
	.loc 1 54 1 is_stmt 0 view .LVU87
	movq	%rdi, %rax
	ret
	.cfi_endproc
.LFE25:
	.size	biguint_neg, .-biguint_neg
	.globl	biguint_or
	.type	biguint_or, @function
biguint_or:
.LVL5:
.LFB26:
	.loc 1 56 1 is_stmt 1 view -0
	.cfi_startproc
	.loc 1 56 1 is_stmt 0 view .LVU89
	movq	%rdi, %rax
	.loc 1 57 5 is_stmt 1 view .LVU90
	.loc 1 57 31 is_stmt 0 view .LVU91
	movq	(%rdx), %rcx
	.loc 1 57 25 view .LVU92
	orq	(%rsi), %rcx
	.loc 1 57 13 view .LVU93
	movq	%rcx, (%rdi)
	.loc 1 58 31 view .LVU94
	movq	8(%rdx), %rcx
	.loc 1 58 25 view .LVU95
	orq	8(%rsi), %rcx
	.loc 1 58 13 view .LVU96
	movq	%rcx, 8(%rdi)
	.loc 1 59 31 view .LVU97
	movq	16(%rdx), %rcx
	.loc 1 59 25 view .LVU98
	orq	16(%rsi), %rcx
	.loc 1 59 13 view .LVU99
	movq	%rcx, 16(%rdi)
	.loc 1 60 31 view .LVU100
	movq	24(%rdx), %rcx
	.loc 1 60 25 view .LVU101
	orq	24(%rsi), %rcx
	.loc 1 60 13 view .LVU102
	movq	%rcx, 24(%rdi)
	.loc 1 61 31 view .LVU103
	movq	32(%rdx), %rcx
	.loc 1 61 25 view .LVU104
	orq	32(%rsi), %rcx
	.loc 1 61 13 view .LVU105
	movq	%rcx, 32(%rdi)
	.loc 1 62 31 view .LVU106
	movq	40(%rdx), %rdx
.LVL6:
	.loc 1 62 25 view .LVU107
	orq	40(%rsi), %rdx
	.loc 1 62 13 view .LVU108
	movq	%rdx, 40(%rdi)
	.loc 1 64 5 is_stmt 1 view .LVU109
	.loc 1 65 1 is_stmt 0 view .LVU110
	ret
	.cfi_endproc
.LFE26:
	.size	biguint_or, .-biguint_or
	.globl	biguint_and
	.type	biguint_and, @function
biguint_and:
.LVL7:
.LFB27:
	.loc 1 67 1 is_stmt 1 view -0
	.cfi_startproc
	.loc 1 67 1 is_stmt 0 view .LVU112
	movq	%rdi, %rax
	.loc 1 68 5 is_stmt 1 view .LVU113
	.loc 1 68 32 is_stmt 0 view .LVU114
	movq	(%rdx), %rcx
	.loc 1 68 26 view .LVU115
	andq	(%rsi), %rcx
	.loc 1 68 14 view .LVU116
	movq	%rcx, (%rdi)
	.loc 1 69 32 view .LVU117
	movq	8(%rdx), %rcx
	.loc 1 69 26 view .LVU118
	andq	8(%rsi), %rcx
	.loc 1 69 14 view .LVU119
	movq	%rcx, 8(%rdi)
	.loc 1 70 32 view .LVU120
	movq	16(%rdx), %rcx
	.loc 1 70 26 view .LVU121
	andq	16(%rsi), %rcx
	.loc 1 70 14 view .LVU122
	movq	%rcx, 16(%rdi)
	.loc 1 71 32 view .LVU123
	movq	24(%rdx), %rcx
	.loc 1 71 26 view .LVU124
	andq	24(%rsi), %rcx
	.loc 1 71 14 view .LVU125
	movq	%rcx, 24(%rdi)
	.loc 1 72 32 view .LVU126
	movq	32(%rdx), %rcx
	.loc 1 72 26 view .LVU127
	andq	32(%rsi), %rcx
	.loc 1 72 14 view .LVU128
	movq	%rcx, 32(%rdi)
	.loc 1 73 32 view .LVU129
	movq	40(%rdx), %rdx
.LVL8:
	.loc 1 73 26 view .LVU130
	andq	40(%rsi), %rdx
	.loc 1 73 14 view .LVU131
	movq	%rdx, 40(%rdi)
	.loc 1 75 5 is_stmt 1 view .LVU132
	.loc 1 76 1 is_stmt 0 view .LVU133
	ret
	.cfi_endproc
.LFE27:
	.size	biguint_and, .-biguint_and
	.globl	biguint_xor
	.type	biguint_xor, @function
biguint_xor:
.LVL9:
.LFB28:
	.loc 1 78 1 is_stmt 1 view -0
	.cfi_startproc
	.loc 1 78 1 is_stmt 0 view .LVU135
	movq	%rdi, %rax
	.loc 1 79 5 is_stmt 1 view .LVU136
	.loc 1 79 32 is_stmt 0 view .LVU137
	movq	(%rdx), %rcx
	.loc 1 79 26 view .LVU138
	xorq	(%rsi), %rcx
	.loc 1 79 14 view .LVU139
	movq	%rcx, (%rdi)
	.loc 1 80 32 view .LVU140
	movq	8(%rdx), %rcx
	.loc 1 80 26 view .LVU141
	xorq	8(%rsi), %rcx
	.loc 1 80 14 view .LVU142
	movq	%rcx, 8(%rdi)
	.loc 1 81 32 view .LVU143
	movq	16(%rdx), %rcx
	.loc 1 81 26 view .LVU144
	xorq	16(%rsi), %rcx
	.loc 1 81 14 view .LVU145
	movq	%rcx, 16(%rdi)
	.loc 1 82 32 view .LVU146
	movq	24(%rdx), %rcx
	.loc 1 82 26 view .LVU147
	xorq	24(%rsi), %rcx
	.loc 1 82 14 view .LVU148
	movq	%rcx, 24(%rdi)
	.loc 1 83 32 view .LVU149
	movq	32(%rdx), %rcx
	.loc 1 83 26 view .LVU150
	xorq	32(%rsi), %rcx
	.loc 1 83 14 view .LVU151
	movq	%rcx, 32(%rdi)
	.loc 1 84 32 view .LVU152
	movq	40(%rdx), %rdx
.LVL10:
	.loc 1 84 26 view .LVU153
	xorq	40(%rsi), %rdx
	.loc 1 84 14 view .LVU154
	movq	%rdx, 40(%rdi)
	.loc 1 86 5 is_stmt 1 view .LVU155
	.loc 1 87 1 is_stmt 0 view .LVU156
	ret
	.cfi_endproc
.LFE28:
	.size	biguint_xor, .-biguint_xor
	.globl	biguint_rsh
	.type	biguint_rsh, @function
biguint_rsh:
.LVL11:
.LFB29:
	.loc 1 128 1 is_stmt 1 view -0
	.cfi_startproc
	.loc 1 128 1 is_stmt 0 view .LVU158
	pushq	%r15
	.cfi_def_cfa_offset 16
	.cfi_offset 15, -16
	pushq	%r14
	.cfi_def_cfa_offset 24
	.cfi_offset 14, -24
	pushq	%r13
	.cfi_def_cfa_offset 32
	.cfi_offset 13, -32
	pushq	%r12
	.cfi_def_cfa_offset 40
	.cfi_offset 12, -40
	pushq	%rbp
	.cfi_def_cfa_offset 48
	.cfi_offset 6, -48
	pushq	%rbx
	.cfi_def_cfa_offset 56
	.cfi_offset 3, -56
	.loc 1 129 5 is_stmt 1 view .LVU159
	.loc 1 129 8 is_stmt 0 view .LVU160
	testq	%rsi, %rsi
	js	.L180
	.loc 1 136 9 is_stmt 1 view .LVU161
	.loc 1 136 70 is_stmt 0 view .LVU162
	cmpq	$63, %rsi
	ja	.L137
	.loc 1 136 70 discriminator 1 view .LVU163
	movq	(%rdx), %rax
	movl	%esi, %ecx
	shrq	%cl, %rax
	jmp	.L53
.L180:
	.loc 1 131 9 is_stmt 1 view .LVU164
	.loc 1 131 16 is_stmt 0 view .LVU165
	movq	%rsi, %rax
	negq	%rax
.LVL12:
	.loc 1 132 9 is_stmt 1 view .LVU166
	.loc 1 132 70 is_stmt 0 view .LVU167
	cmpq	$63, %rax
	ja	.L95
	.loc 1 132 70 discriminator 1 view .LVU168
	movq	40(%rdx), %r8
	movl	%eax, %ecx
	salq	%cl, %r8
.L10:
	.loc 1 132 70 discriminator 1 view .LVU169
	movl	$63, %r9d
	subq	%rsi, %r9
	.loc 1 132 153 discriminator 4 view .LVU170
	cmpq	$62, %r9
	ja	.L96
	.loc 1 132 153 discriminator 5 view .LVU171
	movq	40(%rdx), %rbx
	movl	%esi, %ecx
	shrq	%cl, %rbx
	movq	%rbx, %rcx
.L11:
	.loc 1 132 103 discriminator 8 view .LVU172
	addq	%rcx, %r8
	.loc 1 132 20 discriminator 8 view .LVU173
	movq	%r8, 40(%rdi)
	.loc 1 132 189 is_stmt 1 discriminator 8 view .LVU174
	.loc 1 132 250 is_stmt 0 discriminator 8 view .LVU175
	cmpq	$63, %rax
	ja	.L97
	.loc 1 132 250 discriminator 9 view .LVU176
	movq	32(%rdx), %r8
	movl	%eax, %ecx
	salq	%cl, %r8
.L12:
	.loc 1 132 337 discriminator 12 view .LVU177
	cmpq	$62, %r9
	ja	.L98
	.loc 1 132 337 discriminator 13 view .LVU178
	movq	32(%rdx), %rbx
	movl	%esi, %ecx
	shrq	%cl, %rbx
	movq	%rbx, %rcx
.L13:
	.loc 1 132 287 discriminator 16 view .LVU179
	addq	%rcx, %r8
	movq	$-64, %r10
	subq	%rsi, %r10
	.loc 1 132 428 discriminator 16 view .LVU180
	cmpq	$63, %r10
	ja	.L99
	.loc 1 132 455 discriminator 17 view .LVU181
	leal	-64(%rax), %ecx
	.loc 1 132 428 discriminator 17 view .LVU182
	movq	40(%rdx), %r11
	salq	%cl, %r11
.L14:
	.loc 1 132 428 discriminator 17 view .LVU183
	movq	%rsi, %r13
	notq	%r13
	.loc 1 132 514 discriminator 20 view .LVU184
	cmpq	$62, %r13
	ja	.L100
	.loc 1 132 539 discriminator 21 view .LVU185
	movl	$64, %ecx
	subl	%eax, %ecx
	.loc 1 132 514 discriminator 21 view .LVU186
	movq	40(%rdx), %rbx
	shrq	%cl, %rbx
	movq	%rbx, %rcx
.L15:
	.loc 1 132 462 discriminator 24 view .LVU187
	addq	%rcx, %r11
	.loc 1 132 376 discriminator 24 view .LVU188
	orq	%r8, %r11
	.loc 1 132 200 discriminator 24 view .LVU189
	movq	%r11, 32(%rdi)
	.loc 1 132 551 is_stmt 1 discriminator 24 view .LVU190
	.loc 1 132 612 is_stmt 0 discriminator 24 view .LVU191
	cmpq	$63, %rax
	ja	.L101
	.loc 1 132 612 discriminator 25 view .LVU192
	movq	24(%rdx), %r11
	movl	%eax, %ecx
	salq	%cl, %r11
.L16:
	.loc 1 132 703 discriminator 28 view .LVU193
	cmpq	$62, %r9
	ja	.L102
	.loc 1 132 703 discriminator 29 view .LVU194
	movq	24(%rdx), %rbx
	movl	%esi, %ecx
	shrq	%cl, %rbx
	movq	%rbx, %rcx
.L17:
	.loc 1 132 653 discriminator 32 view .LVU195
	addq	%rcx, %r11
	.loc 1 132 798 discriminator 32 view .LVU196
	cmpq	$63, %r10
	ja	.L103
	.loc 1 132 829 discriminator 33 view .LVU197
	leal	-64(%rax), %ecx
	.loc 1 132 798 discriminator 33 view .LVU198
	movq	32(%rdx), %r8
	salq	%cl, %r8
.L18:
	.loc 1 132 888 discriminator 36 view .LVU199
	cmpq	$62, %r13
	ja	.L104
	.loc 1 132 917 discriminator 37 view .LVU200
	movl	$64, %ecx
	subl	%eax, %ecx
	.loc 1 132 888 discriminator 37 view .LVU201
	movq	32(%rdx), %rbx
	shrq	%cl, %rbx
	movq	%rbx, %rcx
.L19:
	.loc 1 132 836 discriminator 40 view .LVU202
	addq	%rcx, %r8
	.loc 1 132 746 discriminator 40 view .LVU203
	orq	%r11, %r8
	movq	$-128, %rbx
	subq	%rsi, %rbx
	.loc 1 132 982 discriminator 40 view .LVU204
	cmpq	$63, %rbx
	ja	.L105
	.loc 1 132 1009 discriminator 41 view .LVU205
	leal	-128(%rax), %ecx
	.loc 1 132 982 discriminator 41 view .LVU206
	movq	40(%rdx), %rbp
	salq	%cl, %rbp
.L20:
	.loc 1 132 982 discriminator 41 view .LVU207
	movq	$-65, %r11
	subq	%rsi, %r11
	.loc 1 132 1071 discriminator 44 view .LVU208
	cmpq	$62, %r11
	ja	.L106
	.loc 1 132 1097 discriminator 45 view .LVU209
	movl	$128, %ecx
	subl	%eax, %ecx
	.loc 1 132 1071 discriminator 45 view .LVU210
	movq	40(%rdx), %r14
	shrq	%cl, %r14
	movq	%r14, %rcx
.L21:
	.loc 1 132 1017 discriminator 48 view .LVU211
	addq	%rbp, %rcx
	.loc 1 132 928 discriminator 48 view .LVU212
	orq	%rcx, %r8
	.loc 1 132 562 discriminator 48 view .LVU213
	movq	%r8, 24(%rdi)
	.loc 1 132 1109 is_stmt 1 discriminator 48 view .LVU214
	.loc 1 132 1170 is_stmt 0 discriminator 48 view .LVU215
	cmpq	$63, %rax
	ja	.L107
	.loc 1 132 1170 discriminator 49 view .LVU216
	movq	16(%rdx), %r8
	movl	%eax, %ecx
	salq	%cl, %r8
.L22:
	.loc 1 132 1265 discriminator 52 view .LVU217
	cmpq	$62, %r9
	ja	.L108
	.loc 1 132 1265 discriminator 53 view .LVU218
	movq	16(%rdx), %r14
	movl	%esi, %ecx
	shrq	%cl, %r14
	movq	%r14, %rcx
.L23:
	.loc 1 132 1215 discriminator 56 view .LVU219
	addq	%rcx, %r8
	.loc 1 132 1364 discriminator 56 view .LVU220
	cmpq	$63, %r10
	ja	.L109
	.loc 1 132 1399 discriminator 57 view .LVU221
	leal	-64(%rax), %ecx
	.loc 1 132 1364 discriminator 57 view .LVU222
	movq	24(%rdx), %rbp
	salq	%cl, %rbp
.L24:
	.loc 1 132 1458 discriminator 60 view .LVU223
	cmpq	$62, %r13
	ja	.L110
	.loc 1 132 1491 discriminator 61 view .LVU224
	movl	$64, %ecx
	subl	%eax, %ecx
	.loc 1 132 1458 discriminator 61 view .LVU225
	movq	24(%rdx), %r14
	shrq	%cl, %r14
	movq	%r14, %rcx
.L25:
	.loc 1 132 1406 discriminator 64 view .LVU226
	addq	%rcx, %rbp
	.loc 1 132 1312 discriminator 64 view .LVU227
	orq	%r8, %rbp
	.loc 1 132 1556 discriminator 64 view .LVU228
	cmpq	$63, %rbx
	ja	.L111
	.loc 1 132 1587 discriminator 65 view .LVU229
	leal	-128(%rax), %ecx
	.loc 1 132 1556 discriminator 65 view .LVU230
	movq	32(%rdx), %r8
	salq	%cl, %r8
.L26:
	.loc 1 132 1649 discriminator 68 view .LVU231
	cmpq	$62, %r11
	ja	.L112
	.loc 1 132 1679 discriminator 69 view .LVU232
	movl	$128, %ecx
	subl	%eax, %ecx
	.loc 1 132 1649 discriminator 69 view .LVU233
	movq	32(%rdx), %r14
	shrq	%cl, %r14
	movq	%r14, %rcx
.L27:
	.loc 1 132 1595 discriminator 72 view .LVU234
	addq	%rcx, %r8
	.loc 1 132 1502 discriminator 72 view .LVU235
	orq	%rbp, %r8
	movq	$-192, %r12
	subq	%rsi, %r12
	.loc 1 132 1744 discriminator 72 view .LVU236
	cmpq	$63, %r12
	ja	.L113
	.loc 1 132 1771 discriminator 73 view .LVU237
	leal	-192(%rax), %ecx
	.loc 1 132 1744 discriminator 73 view .LVU238
	movq	40(%rdx), %r14
	salq	%cl, %r14
.L28:
	.loc 1 132 1744 discriminator 73 view .LVU239
	movq	$-129, %rbp
	subq	%rsi, %rbp
	.loc 1 132 1833 discriminator 76 view .LVU240
	cmpq	$62, %rbp
	ja	.L114
	.loc 1 132 1859 discriminator 77 view .LVU241
	movl	$192, %ecx
	subl	%eax, %ecx
	.loc 1 132 1833 discriminator 77 view .LVU242
	movq	40(%rdx), %r15
	shrq	%cl, %r15
	movq	%r15, %rcx
.L29:
	.loc 1 132 1779 discriminator 80 view .LVU243
	addq	%r14, %rcx
	.loc 1 132 1690 discriminator 80 view .LVU244
	orq	%rcx, %r8
	.loc 1 132 1120 discriminator 80 view .LVU245
	movq	%r8, 16(%rdi)
	.loc 1 132 1871 is_stmt 1 discriminator 80 view .LVU246
	.loc 1 132 1932 is_stmt 0 discriminator 80 view .LVU247
	cmpq	$63, %rax
	ja	.L115
	.loc 1 132 1932 discriminator 81 view .LVU248
	movq	8(%rdx), %r8
	movl	%eax, %ecx
	salq	%cl, %r8
.L30:
	.loc 1 132 2031 discriminator 84 view .LVU249
	cmpq	$62, %r9
	ja	.L116
	.loc 1 132 2031 discriminator 85 view .LVU250
	movq	8(%rdx), %r14
	movl	%esi, %ecx
	shrq	%cl, %r14
	movq	%r14, %rcx
.L31:
	.loc 1 132 1981 discriminator 88 view .LVU251
	addq	%rcx, %r8
	.loc 1 132 2134 discriminator 88 view .LVU252
	cmpq	$63, %r10
	ja	.L117
	.loc 1 132 2173 discriminator 89 view .LVU253
	leal	-64(%rax), %ecx
	.loc 1 132 2134 discriminator 89 view .LVU254
	movq	16(%rdx), %r14
	salq	%cl, %r14
.L32:
	.loc 1 132 2232 discriminator 92 view .LVU255
	cmpq	$62, %r13
	ja	.L118
	.loc 1 132 2269 discriminator 93 view .LVU256
	movl	$64, %ecx
	subl	%eax, %ecx
	.loc 1 132 2232 discriminator 93 view .LVU257
	movq	16(%rdx), %r15
	shrq	%cl, %r15
	movq	%r15, %rcx
.L33:
	.loc 1 132 2180 discriminator 96 view .LVU258
	addq	%r14, %rcx
	.loc 1 132 2082 discriminator 96 view .LVU259
	orq	%rcx, %r8
	.loc 1 132 2334 discriminator 96 view .LVU260
	cmpq	$63, %rbx
	ja	.L119
	.loc 1 132 2369 discriminator 97 view .LVU261
	leal	-128(%rax), %ecx
	.loc 1 132 2334 discriminator 97 view .LVU262
	movq	24(%rdx), %r14
	salq	%cl, %r14
.L34:
	.loc 1 132 2431 discriminator 100 view .LVU263
	cmpq	$62, %r11
	ja	.L120
	.loc 1 132 2465 discriminator 101 view .LVU264
	movl	$128, %ecx
	subl	%eax, %ecx
	.loc 1 132 2431 discriminator 101 view .LVU265
	movq	24(%rdx), %r15
	shrq	%cl, %r15
	movq	%r15, %rcx
.L35:
	.loc 1 132 2377 discriminator 104 view .LVU266
	addq	%r14, %rcx
	.loc 1 132 2280 discriminator 104 view .LVU267
	orq	%rcx, %r8
	.loc 1 132 2530 discriminator 104 view .LVU268
	cmpq	$63, %r12
	ja	.L121
	.loc 1 132 2561 discriminator 105 view .LVU269
	leal	-192(%rax), %ecx
	.loc 1 132 2530 discriminator 105 view .LVU270
	movq	32(%rdx), %r14
	salq	%cl, %r14
.L36:
	.loc 1 132 2623 discriminator 108 view .LVU271
	cmpq	$62, %rbp
	ja	.L122
	.loc 1 132 2653 discriminator 109 view .LVU272
	movl	$192, %ecx
	subl	%eax, %ecx
	.loc 1 132 2623 discriminator 109 view .LVU273
	movq	32(%rdx), %r15
	shrq	%cl, %r15
	movq	%r15, %rcx
.L37:
	.loc 1 132 2569 discriminator 112 view .LVU274
	addq	%r14, %rcx
	.loc 1 132 2476 discriminator 112 view .LVU275
	orq	%rcx, %r8
	movq	%r8, -16(%rsp)
	movq	$-256, %r15
	subq	%rsi, %r15
	.loc 1 132 2718 discriminator 112 view .LVU276
	cmpq	$63, %r15
	ja	.L123
	.loc 1 132 2718 discriminator 113 view .LVU277
	movq	40(%rdx), %r14
	movl	%eax, %ecx
	salq	%cl, %r14
	movq	%r14, -8(%rsp)
.L38:
	.loc 1 132 2718 discriminator 113 view .LVU278
	movq	$-193, %r14
	subq	%rsi, %r14
	.loc 1 132 2807 discriminator 116 view .LVU279
	cmpq	$62, %r14
	ja	.L124
	.loc 1 132 2833 discriminator 117 view .LVU280
	movl	$256, %ecx
	subl	%eax, %ecx
	.loc 1 132 2807 discriminator 117 view .LVU281
	movq	40(%rdx), %r8
	shrq	%cl, %r8
	movq	%r8, %rcx
.L39:
	.loc 1 132 2753 discriminator 120 view .LVU282
	addq	-8(%rsp), %rcx
	.loc 1 132 2664 discriminator 120 view .LVU283
	movq	-16(%rsp), %r8
	orq	%rcx, %r8
	.loc 1 132 1882 discriminator 120 view .LVU284
	movq	%r8, 8(%rdi)
	.loc 1 132 2845 is_stmt 1 discriminator 120 view .LVU285
	.loc 1 132 2906 is_stmt 0 discriminator 120 view .LVU286
	cmpq	$63, %rax
	ja	.L125
	.loc 1 132 2906 discriminator 121 view .LVU287
	movq	(%rdx), %r8
	movl	%eax, %ecx
	salq	%cl, %r8
.L40:
	.loc 1 132 3005 discriminator 124 view .LVU288
	cmpq	$62, %r9
	ja	.L126
	.loc 1 132 3005 discriminator 125 view .LVU289
	movq	(%rdx), %r9
	movl	%esi, %ecx
	shrq	%cl, %r9
.L41:
	.loc 1 132 2955 discriminator 128 view .LVU290
	addq	%r8, %r9
	.loc 1 132 3108 discriminator 128 view .LVU291
	cmpq	$63, %r10
	ja	.L127
	.loc 1 132 3147 discriminator 129 view .LVU292
	leal	-64(%rax), %ecx
	.loc 1 132 3108 discriminator 129 view .LVU293
	movq	8(%rdx), %r8
	salq	%cl, %r8
.L42:
	.loc 1 132 3206 discriminator 132 view .LVU294
	cmpq	$62, %r13
	ja	.L128
	.loc 1 132 3243 discriminator 133 view .LVU295
	movl	$64, %ecx
	subl	%eax, %ecx
	.loc 1 132 3206 discriminator 133 view .LVU296
	movq	8(%rdx), %r10
	shrq	%cl, %r10
	movq	%r10, %rcx
.L43:
	.loc 1 132 3154 discriminator 136 view .LVU297
	addq	%rcx, %r8
	.loc 1 132 3056 discriminator 136 view .LVU298
	orq	%r9, %r8
	.loc 1 132 3308 discriminator 136 view .LVU299
	cmpq	$63, %rbx
	ja	.L129
	.loc 1 132 3343 discriminator 137 view .LVU300
	leal	-128(%rax), %ecx
	.loc 1 132 3308 discriminator 137 view .LVU301
	movq	16(%rdx), %r10
	salq	%cl, %r10
.L44:
	.loc 1 132 3405 discriminator 140 view .LVU302
	cmpq	$62, %r11
	ja	.L130
	.loc 1 132 3439 discriminator 141 view .LVU303
	movl	$128, %ecx
	subl	%eax, %ecx
	.loc 1 132 3405 discriminator 141 view .LVU304
	movq	16(%rdx), %rbx
	shrq	%cl, %rbx
	movq	%rbx, %rcx
.L45:
	.loc 1 132 3351 discriminator 144 view .LVU305
	addq	%rcx, %r10
	.loc 1 132 3254 discriminator 144 view .LVU306
	orq	%r8, %r10
	.loc 1 132 3504 discriminator 144 view .LVU307
	cmpq	$63, %r12
	ja	.L131
	.loc 1 132 3535 discriminator 145 view .LVU308
	leal	-192(%rax), %ecx
	.loc 1 132 3504 discriminator 145 view .LVU309
	movq	24(%rdx), %r9
	salq	%cl, %r9
.L46:
	.loc 1 132 3597 discriminator 148 view .LVU310
	cmpq	$62, %rbp
	ja	.L132
	.loc 1 132 3627 discriminator 149 view .LVU311
	movl	$192, %ecx
	subl	%eax, %ecx
	.loc 1 132 3597 discriminator 149 view .LVU312
	movq	24(%rdx), %r8
	shrq	%cl, %r8
.L47:
	.loc 1 132 3543 discriminator 152 view .LVU313
	addq	%r8, %r9
	.loc 1 132 3450 discriminator 152 view .LVU314
	orq	%r9, %r10
	movq	%r10, %r8
	.loc 1 132 3692 discriminator 152 view .LVU315
	cmpq	$63, %r15
	ja	.L133
	.loc 1 132 3692 discriminator 153 view .LVU316
	movq	32(%rdx), %r9
	movl	%eax, %ecx
	salq	%cl, %r9
.L48:
	.loc 1 132 3781 discriminator 156 view .LVU317
	cmpq	$62, %r14
	ja	.L134
	.loc 1 132 3807 discriminator 157 view .LVU318
	movl	$256, %ecx
	subl	%eax, %ecx
	.loc 1 132 3781 discriminator 157 view .LVU319
	movq	32(%rdx), %rbx
	shrq	%cl, %rbx
	movq	%rbx, %rcx
.L49:
	.loc 1 132 3727 discriminator 160 view .LVU320
	addq	%rcx, %r9
	.loc 1 132 3638 discriminator 160 view .LVU321
	orq	%r9, %r8
	.loc 1 132 3872 discriminator 160 view .LVU322
	movq	$-320, %rcx
	subq	%rsi, %rcx
	cmpq	$63, %rcx
	ja	.L135
	.loc 1 132 3895 discriminator 161 view .LVU323
	leal	-320(%rax), %ecx
	.loc 1 132 3872 discriminator 161 view .LVU324
	movq	40(%rdx), %r9
	salq	%cl, %r9
.L50:
	.loc 1 132 3957 discriminator 164 view .LVU325
	movq	$-257, %rcx
	subq	%rsi, %rcx
	cmpq	$62, %rcx
	ja	.L136
	.loc 1 132 3964 discriminator 165 view .LVU326
	movq	40(%rdx), %rdx
.LVL13:
	.loc 1 132 3979 discriminator 165 view .LVU327
	movl	$320, %ecx
	subl	%eax, %ecx
	.loc 1 132 3957 discriminator 165 view .LVU328
	movq	%rdx, %rax
.LVL14:
	.loc 1 132 3957 discriminator 165 view .LVU329
	shrq	%cl, %rax
.L51:
	.loc 1 132 3903 discriminator 168 view .LVU330
	addq	%rax, %r9
	.loc 1 132 3818 discriminator 168 view .LVU331
	orq	%r8, %r9
	.loc 1 132 2856 discriminator 168 view .LVU332
	movq	%r9, (%rdi)
	.loc 1 132 3990 is_stmt 1 discriminator 168 view .LVU333
	jmp	.L52
.LVL15:
.L95:
	.loc 1 132 70 is_stmt 0 view .LVU334
	movl	$0, %r8d
	jmp	.L10
.L96:
	.loc 1 132 153 view .LVU335
	movl	$0, %ecx
	jmp	.L11
.L97:
	.loc 1 132 250 view .LVU336
	movl	$0, %r8d
	jmp	.L12
.L98:
	.loc 1 132 337 view .LVU337
	movl	$0, %ecx
	jmp	.L13
.L99:
	.loc 1 132 428 view .LVU338
	movl	$0, %r11d
	jmp	.L14
.L100:
	.loc 1 132 514 view .LVU339
	movl	$0, %ecx
	jmp	.L15
.L101:
	.loc 1 132 612 view .LVU340
	movl	$0, %r11d
	jmp	.L16
.L102:
	.loc 1 132 703 view .LVU341
	movl	$0, %ecx
	jmp	.L17
.L103:
	.loc 1 132 798 view .LVU342
	movl	$0, %r8d
	jmp	.L18
.L104:
	.loc 1 132 888 view .LVU343
	movl	$0, %ecx
	jmp	.L19
.L105:
	.loc 1 132 982 view .LVU344
	movl	$0, %ebp
	jmp	.L20
.L106:
	.loc 1 132 1071 view .LVU345
	movl	$0, %ecx
	jmp	.L21
.L107:
	.loc 1 132 1170 view .LVU346
	movl	$0, %r8d
	jmp	.L22
.L108:
	.loc 1 132 1265 view .LVU347
	movl	$0, %ecx
	jmp	.L23
.L109:
	.loc 1 132 1364 view .LVU348
	movl	$0, %ebp
	jmp	.L24
.L110:
	.loc 1 132 1458 view .LVU349
	movl	$0, %ecx
	jmp	.L25
.L111:
	.loc 1 132 1556 view .LVU350
	movl	$0, %r8d
	jmp	.L26
.L112:
	.loc 1 132 1649 view .LVU351
	movl	$0, %ecx
	jmp	.L27
.L113:
	.loc 1 132 1744 view .LVU352
	movl	$0, %r14d
	jmp	.L28
.L114:
	.loc 1 132 1833 view .LVU353
	movl	$0, %ecx
	jmp	.L29
.L115:
	.loc 1 132 1932 view .LVU354
	movl	$0, %r8d
	jmp	.L30
.L116:
	.loc 1 132 2031 view .LVU355
	movl	$0, %ecx
	jmp	.L31
.L117:
	.loc 1 132 2134 view .LVU356
	movl	$0, %r14d
	jmp	.L32
.L118:
	.loc 1 132 2232 view .LVU357
	movl	$0, %ecx
	jmp	.L33
.L119:
	.loc 1 132 2334 view .LVU358
	movl	$0, %r14d
	jmp	.L34
.L120:
	.loc 1 132 2431 view .LVU359
	movl	$0, %ecx
	jmp	.L35
.L121:
	.loc 1 132 2530 view .LVU360
	movl	$0, %r14d
	jmp	.L36
.L122:
	.loc 1 132 2623 view .LVU361
	movl	$0, %ecx
	jmp	.L37
.L123:
	.loc 1 132 2718 view .LVU362
	movq	$0, -8(%rsp)
	jmp	.L38
.L124:
	.loc 1 132 2807 view .LVU363
	movl	$0, %ecx
	jmp	.L39
.L125:
	.loc 1 132 2906 view .LVU364
	movl	$0, %r8d
	jmp	.L40
.L126:
	.loc 1 132 3005 view .LVU365
	movl	$0, %r9d
	jmp	.L41
.L127:
	.loc 1 132 3108 view .LVU366
	movl	$0, %r8d
	jmp	.L42
.L128:
	.loc 1 132 3206 view .LVU367
	movl	$0, %ecx
	jmp	.L43
.L129:
	.loc 1 132 3308 view .LVU368
	movl	$0, %r10d
	jmp	.L44
.L130:
	.loc 1 132 3405 view .LVU369
	movl	$0, %ecx
	jmp	.L45
.L131:
	.loc 1 132 3504 view .LVU370
	movl	$0, %r9d
	jmp	.L46
.L132:
	.loc 1 132 3597 view .LVU371
	movl	$0, %r8d
	jmp	.L47
.L133:
	.loc 1 132 3692 view .LVU372
	movl	$0, %r9d
	jmp	.L48
.L134:
	.loc 1 132 3781 view .LVU373
	movl	$0, %ecx
	jmp	.L49
.L135:
	.loc 1 132 3872 view .LVU374
	movl	$0, %r9d
	jmp	.L50
.L136:
	.loc 1 132 3957 view .LVU375
	movl	$0, %eax
.LVL16:
	.loc 1 132 3957 view .LVU376
	jmp	.L51
.LVL17:
.L137:
	.loc 1 136 70 view .LVU377
	movl	$0, %eax
.L53:
	.loc 1 136 107 discriminator 4 view .LVU378
	leaq	63(%rsi), %r14
	.loc 1 136 155 discriminator 4 view .LVU379
	cmpq	$-63, %rsi
	jb	.L138
	.loc 1 136 174 discriminator 5 view .LVU380
	movl	%esi, %ecx
	negl	%ecx
	.loc 1 136 155 discriminator 5 view .LVU381
	movq	(%rdx), %rbx
	salq	%cl, %rbx
	movq	%rbx, %rcx
	jmp	.L54
.L138:
	.loc 1 136 155 view .LVU382
	movl	$0, %ecx
.L54:
	.loc 1 136 105 discriminator 8 view .LVU383
	addq	%rcx, %rax
	.loc 1 136 20 discriminator 8 view .LVU384
	movq	%rax, (%rdi)
	.loc 1 136 193 is_stmt 1 discriminator 8 view .LVU385
	.loc 1 136 254 is_stmt 0 discriminator 8 view .LVU386
	cmpq	$63, %rsi
	ja	.L139
	.loc 1 136 254 discriminator 9 view .LVU387
	movq	8(%rdx), %rax
	movl	%esi, %ecx
	shrq	%cl, %rax
	jmp	.L55
.L139:
	.loc 1 136 254 view .LVU388
	movl	$0, %eax
.L55:
	.loc 1 136 343 discriminator 12 view .LVU389
	cmpq	$62, %r14
	ja	.L140
	.loc 1 136 366 discriminator 13 view .LVU390
	movl	%esi, %ecx
	negl	%ecx
	.loc 1 136 343 discriminator 13 view .LVU391
	movq	8(%rdx), %rbx
	salq	%cl, %rbx
	movq	%rbx, %rcx
	jmp	.L56
.L140:
	.loc 1 136 343 view .LVU392
	movl	$0, %ecx
.L56:
	.loc 1 136 293 discriminator 16 view .LVU393
	addq	%rcx, %rax
	.loc 1 136 387 discriminator 16 view .LVU394
	leaq	-64(%rsi), %r9
	.loc 1 136 436 discriminator 16 view .LVU395
	cmpq	$63, %r9
	ja	.L141
	.loc 1 136 465 discriminator 17 view .LVU396
	leal	-64(%rsi), %ecx
	.loc 1 136 436 discriminator 17 view .LVU397
	movq	(%rdx), %r10
	shrq	%cl, %r10
	jmp	.L57
.L141:
	.loc 1 136 436 view .LVU398
	movl	$0, %r10d
.L57:
	.loc 1 136 474 discriminator 20 view .LVU399
	leaq	-1(%rsi), %r8
	.loc 1 136 524 discriminator 20 view .LVU400
	cmpq	$62, %r8
	ja	.L142
	.loc 1 136 551 discriminator 21 view .LVU401
	movl	$64, %ecx
	subl	%esi, %ecx
	.loc 1 136 524 discriminator 21 view .LVU402
	movq	(%rdx), %rbx
	salq	%cl, %rbx
	movq	%rbx, %rcx
	jmp	.L58
.L142:
	.loc 1 136 524 view .LVU403
	movl	$0, %ecx
.L58:
	.loc 1 136 472 discriminator 24 view .LVU404
	addq	%rcx, %r10
	.loc 1 136 384 discriminator 24 view .LVU405
	orq	%r10, %rax
	.loc 1 136 204 discriminator 24 view .LVU406
	movq	%rax, 8(%rdi)
	.loc 1 136 563 is_stmt 1 discriminator 24 view .LVU407
	.loc 1 136 624 is_stmt 0 discriminator 24 view .LVU408
	cmpq	$63, %rsi
	ja	.L143
	.loc 1 136 624 discriminator 25 view .LVU409
	movq	16(%rdx), %rax
	movl	%esi, %ecx
	shrq	%cl, %rax
	jmp	.L59
.L143:
	.loc 1 136 624 view .LVU410
	movl	$0, %eax
.L59:
	.loc 1 136 717 discriminator 28 view .LVU411
	cmpq	$62, %r14
	ja	.L144
	.loc 1 136 744 discriminator 29 view .LVU412
	movl	%esi, %ecx
	negl	%ecx
	.loc 1 136 717 discriminator 29 view .LVU413
	movq	16(%rdx), %rbx
	salq	%cl, %rbx
	movq	%rbx, %rcx
	jmp	.L60
.L144:
	.loc 1 136 717 view .LVU414
	movl	$0, %ecx
.L60:
	.loc 1 136 667 discriminator 32 view .LVU415
	addq	%rcx, %rax
	.loc 1 136 814 discriminator 32 view .LVU416
	cmpq	$63, %r9
	ja	.L145
	.loc 1 136 847 discriminator 33 view .LVU417
	leal	-64(%rsi), %ecx
	.loc 1 136 814 discriminator 33 view .LVU418
	movq	8(%rdx), %r10
	shrq	%cl, %r10
	jmp	.L61
.L145:
	.loc 1 136 814 view .LVU419
	movl	$0, %r10d
.L61:
	.loc 1 136 906 discriminator 36 view .LVU420
	cmpq	$62, %r8
	ja	.L146
	.loc 1 136 937 discriminator 37 view .LVU421
	movl	$64, %ecx
	subl	%esi, %ecx
	.loc 1 136 906 discriminator 37 view .LVU422
	movq	8(%rdx), %rbx
	salq	%cl, %rbx
	movq	%rbx, %rcx
	jmp	.L62
.L146:
	.loc 1 136 906 view .LVU423
	movl	$0, %ecx
.L62:
	.loc 1 136 854 discriminator 40 view .LVU424
	addq	%rcx, %r10
	.loc 1 136 762 discriminator 40 view .LVU425
	orq	%r10, %rax
	.loc 1 136 951 discriminator 40 view .LVU426
	leaq	-128(%rsi), %r11
	.loc 1 136 1002 discriminator 40 view .LVU427
	cmpq	$63, %r11
	ja	.L147
	.loc 1 136 1031 discriminator 41 view .LVU428
	leal	-128(%rsi), %ecx
	.loc 1 136 1002 discriminator 41 view .LVU429
	movq	(%rdx), %rbx
	shrq	%cl, %rbx
	jmp	.L63
.L147:
	.loc 1 136 1002 view .LVU430
	movl	$0, %ebx
.L63:
	.loc 1 136 1041 discriminator 44 view .LVU431
	leaq	-65(%rsi), %r10
	.loc 1 136 1093 discriminator 44 view .LVU432
	cmpq	$62, %r10
	ja	.L148
	.loc 1 136 1121 discriminator 45 view .LVU433
	movl	$128, %ecx
	subl	%esi, %ecx
	.loc 1 136 1093 discriminator 45 view .LVU434
	movq	(%rdx), %r15
	salq	%cl, %r15
	movq	%r15, %rcx
	jmp	.L64
.L148:
	.loc 1 136 1093 view .LVU435
	movl	$0, %ecx
.L64:
	.loc 1 136 1039 discriminator 48 view .LVU436
	addq	%rcx, %rbx
	.loc 1 136 948 discriminator 48 view .LVU437
	orq	%rax, %rbx
	.loc 1 136 574 discriminator 48 view .LVU438
	movq	%rbx, 16(%rdi)
	.loc 1 136 1133 is_stmt 1 discriminator 48 view .LVU439
	.loc 1 136 1194 is_stmt 0 discriminator 48 view .LVU440
	cmpq	$63, %rsi
	ja	.L149
	.loc 1 136 1194 discriminator 49 view .LVU441
	movq	24(%rdx), %rbx
	movl	%esi, %ecx
	shrq	%cl, %rbx
	jmp	.L65
.L149:
	.loc 1 136 1194 view .LVU442
	movl	$0, %ebx
.L65:
	.loc 1 136 1291 discriminator 52 view .LVU443
	cmpq	$62, %r14
	ja	.L150
	.loc 1 136 1322 discriminator 53 view .LVU444
	movl	%esi, %ecx
	negl	%ecx
	.loc 1 136 1291 discriminator 53 view .LVU445
	movq	24(%rdx), %rax
	salq	%cl, %rax
	jmp	.L66
.L150:
	.loc 1 136 1291 view .LVU446
	movl	$0, %eax
.L66:
	.loc 1 136 1241 discriminator 56 view .LVU447
	addq	%rbx, %rax
	.loc 1 136 1392 discriminator 56 view .LVU448
	cmpq	$63, %r9
	ja	.L151
	.loc 1 136 1429 discriminator 57 view .LVU449
	leal	-64(%rsi), %ecx
	.loc 1 136 1392 discriminator 57 view .LVU450
	movq	16(%rdx), %rbx
	shrq	%cl, %rbx
	jmp	.L67
.L151:
	.loc 1 136 1392 view .LVU451
	movl	$0, %ebx
.L67:
	.loc 1 136 1488 discriminator 60 view .LVU452
	cmpq	$62, %r8
	ja	.L152
	.loc 1 136 1523 discriminator 61 view .LVU453
	movl	$64, %ecx
	subl	%esi, %ecx
	.loc 1 136 1488 discriminator 61 view .LVU454
	movq	16(%rdx), %r15
	salq	%cl, %r15
	movq	%r15, %rcx
	jmp	.L68
.L152:
	.loc 1 136 1488 view .LVU455
	movl	$0, %ecx
.L68:
	.loc 1 136 1436 discriminator 64 view .LVU456
	addq	%rcx, %rbx
	.loc 1 136 1340 discriminator 64 view .LVU457
	orq	%rbx, %rax
	.loc 1 136 1588 discriminator 64 view .LVU458
	cmpq	$63, %r11
	ja	.L153
	.loc 1 136 1621 discriminator 65 view .LVU459
	leal	-128(%rsi), %ecx
	.loc 1 136 1588 discriminator 65 view .LVU460
	movq	8(%rdx), %rbx
	shrq	%cl, %rbx
	jmp	.L69
.L153:
	.loc 1 136 1588 view .LVU461
	movl	$0, %ebx
.L69:
	.loc 1 136 1683 discriminator 68 view .LVU462
	cmpq	$62, %r10
	ja	.L154
	.loc 1 136 1715 discriminator 69 view .LVU463
	movl	$128, %ecx
	subl	%esi, %ecx
	.loc 1 136 1683 discriminator 69 view .LVU464
	movq	8(%rdx), %r15
	salq	%cl, %r15
	movq	%r15, %rcx
	jmp	.L70
.L154:
	.loc 1 136 1683 view .LVU465
	movl	$0, %ecx
.L70:
	.loc 1 136 1629 discriminator 72 view .LVU466
	addq	%rcx, %rbx
	.loc 1 136 1534 discriminator 72 view .LVU467
	orq	%rbx, %rax
	.loc 1 136 1729 discriminator 72 view .LVU468
	leaq	-192(%rsi), %rbp
	.loc 1 136 1780 discriminator 72 view .LVU469
	cmpq	$63, %rbp
	ja	.L155
	.loc 1 136 1809 discriminator 73 view .LVU470
	leal	-192(%rsi), %ecx
	.loc 1 136 1780 discriminator 73 view .LVU471
	movq	(%rdx), %r12
	shrq	%cl, %r12
	jmp	.L71
.L155:
	.loc 1 136 1780 view .LVU472
	movl	$0, %r12d
.L71:
	.loc 1 136 1819 discriminator 76 view .LVU473
	leaq	-129(%rsi), %rbx
	.loc 1 136 1871 discriminator 76 view .LVU474
	cmpq	$62, %rbx
	ja	.L156
	.loc 1 136 1899 discriminator 77 view .LVU475
	movl	$192, %ecx
	subl	%esi, %ecx
	.loc 1 136 1871 discriminator 77 view .LVU476
	movq	(%rdx), %r15
	salq	%cl, %r15
	movq	%r15, %rcx
	jmp	.L72
.L156:
	.loc 1 136 1871 view .LVU477
	movl	$0, %ecx
.L72:
	.loc 1 136 1817 discriminator 80 view .LVU478
	addq	%r12, %rcx
	.loc 1 136 1726 discriminator 80 view .LVU479
	orq	%rcx, %rax
	.loc 1 136 1144 discriminator 80 view .LVU480
	movq	%rax, 24(%rdi)
	.loc 1 136 1911 is_stmt 1 discriminator 80 view .LVU481
	.loc 1 136 1972 is_stmt 0 discriminator 80 view .LVU482
	cmpq	$63, %rsi
	ja	.L157
	.loc 1 136 1972 discriminator 81 view .LVU483
	movq	32(%rdx), %r12
	movl	%esi, %ecx
	shrq	%cl, %r12
	jmp	.L73
.L157:
	.loc 1 136 1972 view .LVU484
	movl	$0, %r12d
.L73:
	.loc 1 136 2073 discriminator 84 view .LVU485
	cmpq	$62, %r14
	ja	.L158
	.loc 1 136 2108 discriminator 85 view .LVU486
	movl	%esi, %ecx
	negl	%ecx
	.loc 1 136 2073 discriminator 85 view .LVU487
	movq	32(%rdx), %rax
	salq	%cl, %rax
	jmp	.L74
.L158:
	.loc 1 136 2073 view .LVU488
	movl	$0, %eax
.L74:
	.loc 1 136 2023 discriminator 88 view .LVU489
	addq	%r12, %rax
	.loc 1 136 2178 discriminator 88 view .LVU490
	cmpq	$63, %r9
	ja	.L159
	.loc 1 136 2219 discriminator 89 view .LVU491
	leal	-64(%rsi), %ecx
	.loc 1 136 2178 discriminator 89 view .LVU492
	movq	24(%rdx), %r13
	shrq	%cl, %r13
	jmp	.L75
.L159:
	.loc 1 136 2178 view .LVU493
	movl	$0, %r13d
.L75:
	.loc 1 136 2278 discriminator 92 view .LVU494
	cmpq	$62, %r8
	ja	.L160
	.loc 1 136 2317 discriminator 93 view .LVU495
	movl	$64, %ecx
	subl	%esi, %ecx
	.loc 1 136 2278 discriminator 93 view .LVU496
	movq	24(%rdx), %r15
	salq	%cl, %r15
	movq	%r15, %rcx
	jmp	.L76
.L160:
	.loc 1 136 2278 view .LVU497
	movl	$0, %ecx
.L76:
	.loc 1 136 2226 discriminator 96 view .LVU498
	addq	%r13, %rcx
	.loc 1 136 2126 discriminator 96 view .LVU499
	orq	%rcx, %rax
	.loc 1 136 2382 discriminator 96 view .LVU500
	cmpq	$63, %r11
	ja	.L161
	.loc 1 136 2419 discriminator 97 view .LVU501
	leal	-128(%rsi), %ecx
	.loc 1 136 2382 discriminator 97 view .LVU502
	movq	16(%rdx), %r12
	shrq	%cl, %r12
	jmp	.L77
.L161:
	.loc 1 136 2382 view .LVU503
	movl	$0, %r12d
.L77:
	.loc 1 136 2481 discriminator 100 view .LVU504
	cmpq	$62, %r10
	ja	.L162
	.loc 1 136 2517 discriminator 101 view .LVU505
	movl	$128, %ecx
	subl	%esi, %ecx
	.loc 1 136 2481 discriminator 101 view .LVU506
	movq	16(%rdx), %r15
	salq	%cl, %r15
	movq	%r15, %rcx
	jmp	.L78
.L162:
	.loc 1 136 2481 view .LVU507
	movl	$0, %ecx
.L78:
	.loc 1 136 2427 discriminator 104 view .LVU508
	addq	%r12, %rcx
	.loc 1 136 2328 discriminator 104 view .LVU509
	orq	%rcx, %rax
	.loc 1 136 2582 discriminator 104 view .LVU510
	cmpq	$63, %rbp
	ja	.L163
	.loc 1 136 2615 discriminator 105 view .LVU511
	leal	-192(%rsi), %ecx
	.loc 1 136 2582 discriminator 105 view .LVU512
	movq	8(%rdx), %r12
	shrq	%cl, %r12
	jmp	.L79
.L163:
	.loc 1 136 2582 view .LVU513
	movl	$0, %r12d
.L79:
	.loc 1 136 2677 discriminator 108 view .LVU514
	cmpq	$62, %rbx
	ja	.L164
	.loc 1 136 2709 discriminator 109 view .LVU515
	movl	$192, %ecx
	subl	%esi, %ecx
	.loc 1 136 2677 discriminator 109 view .LVU516
	movq	8(%rdx), %r15
	salq	%cl, %r15
	movq	%r15, %rcx
	jmp	.L80
.L164:
	.loc 1 136 2677 view .LVU517
	movl	$0, %ecx
.L80:
	.loc 1 136 2623 discriminator 112 view .LVU518
	addq	%r12, %rcx
	.loc 1 136 2528 discriminator 112 view .LVU519
	orq	%rcx, %rax
	movq	%rax, -16(%rsp)
	.loc 1 136 2723 discriminator 112 view .LVU520
	leaq	-256(%rsi), %r13
	.loc 1 136 2774 discriminator 112 view .LVU521
	cmpq	$63, %r13
	ja	.L165
	.loc 1 136 2774 discriminator 113 view .LVU522
	movq	(%rdx), %r15
	movl	%esi, %ecx
	shrq	%cl, %r15
	jmp	.L81
.L165:
	.loc 1 136 2774 view .LVU523
	movl	$0, %r15d
.L81:
	.loc 1 136 2813 discriminator 116 view .LVU524
	leaq	-193(%rsi), %r12
	.loc 1 136 2865 discriminator 116 view .LVU525
	cmpq	$62, %r12
	ja	.L166
	.loc 1 136 2893 discriminator 117 view .LVU526
	movl	$256, %ecx
	subl	%esi, %ecx
	.loc 1 136 2865 discriminator 117 view .LVU527
	movq	(%rdx), %rax
	salq	%cl, %rax
	movq	%rax, %rcx
	jmp	.L82
.L166:
	.loc 1 136 2865 view .LVU528
	movl	$0, %ecx
.L82:
	.loc 1 136 2811 discriminator 120 view .LVU529
	addq	%r15, %rcx
	.loc 1 136 2720 discriminator 120 view .LVU530
	movq	-16(%rsp), %rax
	orq	%rcx, %rax
	.loc 1 136 1922 discriminator 120 view .LVU531
	movq	%rax, 32(%rdi)
	.loc 1 136 2905 is_stmt 1 discriminator 120 view .LVU532
	.loc 1 136 2966 is_stmt 0 discriminator 120 view .LVU533
	cmpq	$63, %rsi
	ja	.L167
	.loc 1 136 2966 discriminator 121 view .LVU534
	movq	40(%rdx), %r15
	movl	%esi, %ecx
	shrq	%cl, %r15
	jmp	.L83
.L167:
	.loc 1 136 2966 view .LVU535
	movl	$0, %r15d
.L83:
	.loc 1 136 3067 discriminator 124 view .LVU536
	cmpq	$62, %r14
	ja	.L168
	.loc 1 136 3102 discriminator 125 view .LVU537
	movl	%esi, %ecx
	negl	%ecx
	.loc 1 136 3067 discriminator 125 view .LVU538
	movq	40(%rdx), %rax
	salq	%cl, %rax
	jmp	.L84
.L168:
	.loc 1 136 3067 view .LVU539
	movl	$0, %eax
.L84:
	.loc 1 136 3017 discriminator 128 view .LVU540
	leaq	(%r15,%rax), %r14
	.loc 1 136 3172 discriminator 128 view .LVU541
	cmpq	$63, %r9
	ja	.L169
	.loc 1 136 3213 discriminator 129 view .LVU542
	leal	-64(%rsi), %ecx
	.loc 1 136 3172 discriminator 129 view .LVU543
	movq	32(%rdx), %rax
	shrq	%cl, %rax
	jmp	.L85
.L169:
	.loc 1 136 3172 view .LVU544
	movl	$0, %eax
.L85:
	.loc 1 136 3272 discriminator 132 view .LVU545
	cmpq	$62, %r8
	ja	.L170
	.loc 1 136 3311 discriminator 133 view .LVU546
	movl	$64, %ecx
	subl	%esi, %ecx
	.loc 1 136 3272 discriminator 133 view .LVU547
	movq	32(%rdx), %r15
	salq	%cl, %r15
	movq	%r15, %rcx
	jmp	.L86
.L170:
	.loc 1 136 3272 view .LVU548
	movl	$0, %ecx
.L86:
	.loc 1 136 3220 discriminator 136 view .LVU549
	addq	%rcx, %rax
	.loc 1 136 3120 discriminator 136 view .LVU550
	orq	%r14, %rax
	.loc 1 136 3376 discriminator 136 view .LVU551
	cmpq	$63, %r11
	ja	.L171
	.loc 1 136 3413 discriminator 137 view .LVU552
	leal	-128(%rsi), %ecx
	.loc 1 136 3376 discriminator 137 view .LVU553
	movq	24(%rdx), %r8
	shrq	%cl, %r8
	jmp	.L87
.L171:
	.loc 1 136 3376 view .LVU554
	movl	$0, %r8d
.L87:
	.loc 1 136 3475 discriminator 140 view .LVU555
	cmpq	$62, %r10
	ja	.L172
	.loc 1 136 3511 discriminator 141 view .LVU556
	movl	$128, %ecx
	subl	%esi, %ecx
	.loc 1 136 3475 discriminator 141 view .LVU557
	movq	24(%rdx), %r11
	salq	%cl, %r11
	movq	%r11, %rcx
	jmp	.L88
.L172:
	.loc 1 136 3475 view .LVU558
	movl	$0, %ecx
.L88:
	.loc 1 136 3421 discriminator 144 view .LVU559
	addq	%rcx, %r8
	.loc 1 136 3322 discriminator 144 view .LVU560
	orq	%r8, %rax
	.loc 1 136 3576 discriminator 144 view .LVU561
	cmpq	$63, %rbp
	ja	.L173
	.loc 1 136 3609 discriminator 145 view .LVU562
	leal	-192(%rsi), %ecx
	.loc 1 136 3576 discriminator 145 view .LVU563
	movq	16(%rdx), %r8
	shrq	%cl, %r8
	jmp	.L89
.L173:
	.loc 1 136 3576 view .LVU564
	movl	$0, %r8d
.L89:
	.loc 1 136 3671 discriminator 148 view .LVU565
	cmpq	$62, %rbx
	ja	.L174
	.loc 1 136 3703 discriminator 149 view .LVU566
	movl	$192, %ecx
	subl	%esi, %ecx
	.loc 1 136 3671 discriminator 149 view .LVU567
	movq	16(%rdx), %rbx
	salq	%cl, %rbx
	movq	%rbx, %rcx
	jmp	.L90
.L174:
	.loc 1 136 3671 view .LVU568
	movl	$0, %ecx
.L90:
	.loc 1 136 3617 discriminator 152 view .LVU569
	addq	%rcx, %r8
	.loc 1 136 3522 discriminator 152 view .LVU570
	orq	%r8, %rax
	.loc 1 136 3768 discriminator 152 view .LVU571
	cmpq	$63, %r13
	ja	.L175
	.loc 1 136 3768 discriminator 153 view .LVU572
	movq	8(%rdx), %r8
	movl	%esi, %ecx
	shrq	%cl, %r8
	jmp	.L91
.L175:
	.loc 1 136 3768 view .LVU573
	movl	$0, %r8d
.L91:
	.loc 1 136 3859 discriminator 156 view .LVU574
	cmpq	$62, %r12
	ja	.L176
	.loc 1 136 3887 discriminator 157 view .LVU575
	movl	$256, %ecx
	subl	%esi, %ecx
	.loc 1 136 3859 discriminator 157 view .LVU576
	movq	8(%rdx), %rbx
	salq	%cl, %rbx
	movq	%rbx, %rcx
	jmp	.L92
.L176:
	.loc 1 136 3859 view .LVU577
	movl	$0, %ecx
.L92:
	.loc 1 136 3805 discriminator 160 view .LVU578
	addq	%rcx, %r8
	.loc 1 136 3714 discriminator 160 view .LVU579
	orq	%r8, %rax
	.loc 1 136 3901 discriminator 160 view .LVU580
	leaq	-320(%rsi), %rcx
	.loc 1 136 3952 discriminator 160 view .LVU581
	cmpq	$63, %rcx
	ja	.L177
	.loc 1 136 3977 discriminator 161 view .LVU582
	leal	-320(%rsi), %ecx
	.loc 1 136 3952 discriminator 161 view .LVU583
	movq	(%rdx), %r8
	shrq	%cl, %r8
	jmp	.L93
.L177:
	.loc 1 136 3952 view .LVU584
	movl	$0, %r8d
.L93:
	.loc 1 136 3987 discriminator 164 view .LVU585
	leaq	-257(%rsi), %rcx
	.loc 1 136 4039 discriminator 164 view .LVU586
	cmpq	$62, %rcx
	ja	.L178
	.loc 1 136 4047 discriminator 165 view .LVU587
	movq	(%rdx), %rdx
.LVL18:
	.loc 1 136 4063 discriminator 165 view .LVU588
	movl	$320, %ecx
	subl	%esi, %ecx
	.loc 1 136 4039 discriminator 165 view .LVU589
	salq	%cl, %rdx
	jmp	.L94
.LVL19:
.L178:
	.loc 1 136 4039 view .LVU590
	movl	$0, %edx
.LVL20:
.L94:
	.loc 1 136 3985 discriminator 168 view .LVU591
	addq	%rdx, %r8
	.loc 1 136 3898 discriminator 168 view .LVU592
	orq	%r8, %rax
	.loc 1 136 2916 discriminator 168 view .LVU593
	movq	%rax, 40(%rdi)
.LVL21:
.L52:
	.loc 1 136 4074 is_stmt 1 discriminator 169 view .LVU594
	.loc 1 139 5 discriminator 169 view .LVU595
	.loc 1 141 1 is_stmt 0 discriminator 169 view .LVU596
	movq	%rdi, %rax
	popq	%rbx
	.cfi_def_cfa_offset 48
	popq	%rbp
	.cfi_def_cfa_offset 40
	popq	%r12
	.cfi_def_cfa_offset 32
	popq	%r13
	.cfi_def_cfa_offset 24
	popq	%r14
	.cfi_def_cfa_offset 16
	popq	%r15
	.cfi_def_cfa_offset 8
	ret
	.cfi_endproc
.LFE29:
	.size	biguint_rsh, .-biguint_rsh
	.globl	biguint_lsh
	.type	biguint_lsh, @function
biguint_lsh:
.LVL22:
.LFB30:
	.loc 1 143 1 is_stmt 1 view -0
	.cfi_startproc
	.loc 1 143 1 is_stmt 0 view .LVU598
	pushq	%r15
	.cfi_def_cfa_offset 16
	.cfi_offset 15, -16
	pushq	%r14
	.cfi_def_cfa_offset 24
	.cfi_offset 14, -24
	pushq	%r13
	.cfi_def_cfa_offset 32
	.cfi_offset 13, -32
	pushq	%r12
	.cfi_def_cfa_offset 40
	.cfi_offset 12, -40
	pushq	%rbp
	.cfi_def_cfa_offset 48
	.cfi_offset 6, -48
	pushq	%rbx
	.cfi_def_cfa_offset 56
	.cfi_offset 3, -56
	.loc 1 144 5 is_stmt 1 view .LVU599
	.loc 1 144 8 is_stmt 0 view .LVU600
	testq	%rsi, %rsi
	js	.L353
	.loc 1 151 9 is_stmt 1 view .LVU601
	.loc 1 151 70 is_stmt 0 view .LVU602
	cmpq	$63, %rsi
	ja	.L310
	.loc 1 151 70 discriminator 1 view .LVU603
	movq	40(%rdx), %rax
	movl	%esi, %ecx
	salq	%cl, %rax
	jmp	.L226
.L353:
	.loc 1 146 9 is_stmt 1 view .LVU604
	.loc 1 146 16 is_stmt 0 view .LVU605
	movq	%rsi, %rax
	negq	%rax
.LVL23:
	.loc 1 147 9 is_stmt 1 view .LVU606
	.loc 1 147 70 is_stmt 0 view .LVU607
	cmpq	$63, %rax
	ja	.L268
	.loc 1 147 70 discriminator 1 view .LVU608
	movq	(%rdx), %r8
	movl	%eax, %ecx
	shrq	%cl, %r8
.L183:
	.loc 1 147 70 discriminator 1 view .LVU609
	movl	$63, %r9d
	subq	%rsi, %r9
	.loc 1 147 155 discriminator 4 view .LVU610
	cmpq	$62, %r9
	ja	.L269
	.loc 1 147 155 discriminator 5 view .LVU611
	movq	(%rdx), %rbx
	movl	%esi, %ecx
	salq	%cl, %rbx
	movq	%rbx, %rcx
.L184:
	.loc 1 147 105 discriminator 8 view .LVU612
	addq	%rcx, %r8
	.loc 1 147 20 discriminator 8 view .LVU613
	movq	%r8, (%rdi)
	.loc 1 147 193 is_stmt 1 discriminator 8 view .LVU614
	.loc 1 147 254 is_stmt 0 discriminator 8 view .LVU615
	cmpq	$63, %rax
	ja	.L270
	.loc 1 147 254 discriminator 9 view .LVU616
	movq	8(%rdx), %r8
	movl	%eax, %ecx
	shrq	%cl, %r8
.L185:
	.loc 1 147 343 discriminator 12 view .LVU617
	cmpq	$62, %r9
	ja	.L271
	.loc 1 147 343 discriminator 13 view .LVU618
	movq	8(%rdx), %rbx
	movl	%esi, %ecx
	salq	%cl, %rbx
	movq	%rbx, %rcx
.L186:
	.loc 1 147 293 discriminator 16 view .LVU619
	addq	%rcx, %r8
	movq	$-64, %r10
	subq	%rsi, %r10
	.loc 1 147 436 discriminator 16 view .LVU620
	cmpq	$63, %r10
	ja	.L272
	.loc 1 147 465 discriminator 17 view .LVU621
	leal	-64(%rax), %ecx
	.loc 1 147 436 discriminator 17 view .LVU622
	movq	(%rdx), %r11
	shrq	%cl, %r11
.L187:
	.loc 1 147 436 discriminator 17 view .LVU623
	movq	%rsi, %r13
	notq	%r13
	.loc 1 147 524 discriminator 20 view .LVU624
	cmpq	$62, %r13
	ja	.L273
	.loc 1 147 551 discriminator 21 view .LVU625
	movl	$64, %ecx
	subl	%eax, %ecx
	.loc 1 147 524 discriminator 21 view .LVU626
	movq	(%rdx), %rbx
	salq	%cl, %rbx
	movq	%rbx, %rcx
.L188:
	.loc 1 147 472 discriminator 24 view .LVU627
	addq	%rcx, %r11
	.loc 1 147 384 discriminator 24 view .LVU628
	orq	%r8, %r11
	.loc 1 147 204 discriminator 24 view .LVU629
	movq	%r11, 8(%rdi)
	.loc 1 147 563 is_stmt 1 discriminator 24 view .LVU630
	.loc 1 147 624 is_stmt 0 discriminator 24 view .LVU631
	cmpq	$63, %rax
	ja	.L274
	.loc 1 147 624 discriminator 25 view .LVU632
	movq	16(%rdx), %r11
	movl	%eax, %ecx
	shrq	%cl, %r11
.L189:
	.loc 1 147 717 discriminator 28 view .LVU633
	cmpq	$62, %r9
	ja	.L275
	.loc 1 147 717 discriminator 29 view .LVU634
	movq	16(%rdx), %rbx
	movl	%esi, %ecx
	salq	%cl, %rbx
	movq	%rbx, %rcx
.L190:
	.loc 1 147 667 discriminator 32 view .LVU635
	addq	%rcx, %r11
	.loc 1 147 814 discriminator 32 view .LVU636
	cmpq	$63, %r10
	ja	.L276
	.loc 1 147 847 discriminator 33 view .LVU637
	leal	-64(%rax), %ecx
	.loc 1 147 814 discriminator 33 view .LVU638
	movq	8(%rdx), %r8
	shrq	%cl, %r8
.L191:
	.loc 1 147 906 discriminator 36 view .LVU639
	cmpq	$62, %r13
	ja	.L277
	.loc 1 147 937 discriminator 37 view .LVU640
	movl	$64, %ecx
	subl	%eax, %ecx
	.loc 1 147 906 discriminator 37 view .LVU641
	movq	8(%rdx), %rbx
	salq	%cl, %rbx
	movq	%rbx, %rcx
.L192:
	.loc 1 147 854 discriminator 40 view .LVU642
	addq	%rcx, %r8
	.loc 1 147 762 discriminator 40 view .LVU643
	orq	%r11, %r8
	movq	$-128, %rbx
	subq	%rsi, %rbx
	.loc 1 147 1002 discriminator 40 view .LVU644
	cmpq	$63, %rbx
	ja	.L278
	.loc 1 147 1031 discriminator 41 view .LVU645
	leal	-128(%rax), %ecx
	.loc 1 147 1002 discriminator 41 view .LVU646
	movq	(%rdx), %rbp
	shrq	%cl, %rbp
.L193:
	.loc 1 147 1002 discriminator 41 view .LVU647
	movq	$-65, %r11
	subq	%rsi, %r11
	.loc 1 147 1093 discriminator 44 view .LVU648
	cmpq	$62, %r11
	ja	.L279
	.loc 1 147 1121 discriminator 45 view .LVU649
	movl	$128, %ecx
	subl	%eax, %ecx
	.loc 1 147 1093 discriminator 45 view .LVU650
	movq	(%rdx), %r14
	salq	%cl, %r14
	movq	%r14, %rcx
.L194:
	.loc 1 147 1039 discriminator 48 view .LVU651
	addq	%rbp, %rcx
	.loc 1 147 948 discriminator 48 view .LVU652
	orq	%rcx, %r8
	.loc 1 147 574 discriminator 48 view .LVU653
	movq	%r8, 16(%rdi)
	.loc 1 147 1133 is_stmt 1 discriminator 48 view .LVU654
	.loc 1 147 1194 is_stmt 0 discriminator 48 view .LVU655
	cmpq	$63, %rax
	ja	.L280
	.loc 1 147 1194 discriminator 49 view .LVU656
	movq	24(%rdx), %r8
	movl	%eax, %ecx
	shrq	%cl, %r8
.L195:
	.loc 1 147 1291 discriminator 52 view .LVU657
	cmpq	$62, %r9
	ja	.L281
	.loc 1 147 1291 discriminator 53 view .LVU658
	movq	24(%rdx), %r14
	movl	%esi, %ecx
	salq	%cl, %r14
	movq	%r14, %rcx
.L196:
	.loc 1 147 1241 discriminator 56 view .LVU659
	addq	%rcx, %r8
	.loc 1 147 1392 discriminator 56 view .LVU660
	cmpq	$63, %r10
	ja	.L282
	.loc 1 147 1429 discriminator 57 view .LVU661
	leal	-64(%rax), %ecx
	.loc 1 147 1392 discriminator 57 view .LVU662
	movq	16(%rdx), %rbp
	shrq	%cl, %rbp
.L197:
	.loc 1 147 1488 discriminator 60 view .LVU663
	cmpq	$62, %r13
	ja	.L283
	.loc 1 147 1523 discriminator 61 view .LVU664
	movl	$64, %ecx
	subl	%eax, %ecx
	.loc 1 147 1488 discriminator 61 view .LVU665
	movq	16(%rdx), %r14
	salq	%cl, %r14
	movq	%r14, %rcx
.L198:
	.loc 1 147 1436 discriminator 64 view .LVU666
	addq	%rcx, %rbp
	.loc 1 147 1340 discriminator 64 view .LVU667
	orq	%r8, %rbp
	.loc 1 147 1588 discriminator 64 view .LVU668
	cmpq	$63, %rbx
	ja	.L284
	.loc 1 147 1621 discriminator 65 view .LVU669
	leal	-128(%rax), %ecx
	.loc 1 147 1588 discriminator 65 view .LVU670
	movq	8(%rdx), %r8
	shrq	%cl, %r8
.L199:
	.loc 1 147 1683 discriminator 68 view .LVU671
	cmpq	$62, %r11
	ja	.L285
	.loc 1 147 1715 discriminator 69 view .LVU672
	movl	$128, %ecx
	subl	%eax, %ecx
	.loc 1 147 1683 discriminator 69 view .LVU673
	movq	8(%rdx), %r14
	salq	%cl, %r14
	movq	%r14, %rcx
.L200:
	.loc 1 147 1629 discriminator 72 view .LVU674
	addq	%rcx, %r8
	.loc 1 147 1534 discriminator 72 view .LVU675
	orq	%rbp, %r8
	movq	$-192, %r12
	subq	%rsi, %r12
	.loc 1 147 1780 discriminator 72 view .LVU676
	cmpq	$63, %r12
	ja	.L286
	.loc 1 147 1809 discriminator 73 view .LVU677
	leal	-192(%rax), %ecx
	.loc 1 147 1780 discriminator 73 view .LVU678
	movq	(%rdx), %r14
	shrq	%cl, %r14
.L201:
	.loc 1 147 1780 discriminator 73 view .LVU679
	movq	$-129, %rbp
	subq	%rsi, %rbp
	.loc 1 147 1871 discriminator 76 view .LVU680
	cmpq	$62, %rbp
	ja	.L287
	.loc 1 147 1899 discriminator 77 view .LVU681
	movl	$192, %ecx
	subl	%eax, %ecx
	.loc 1 147 1871 discriminator 77 view .LVU682
	movq	(%rdx), %r15
	salq	%cl, %r15
	movq	%r15, %rcx
.L202:
	.loc 1 147 1817 discriminator 80 view .LVU683
	addq	%r14, %rcx
	.loc 1 147 1726 discriminator 80 view .LVU684
	orq	%rcx, %r8
	.loc 1 147 1144 discriminator 80 view .LVU685
	movq	%r8, 24(%rdi)
	.loc 1 147 1911 is_stmt 1 discriminator 80 view .LVU686
	.loc 1 147 1972 is_stmt 0 discriminator 80 view .LVU687
	cmpq	$63, %rax
	ja	.L288
	.loc 1 147 1972 discriminator 81 view .LVU688
	movq	32(%rdx), %r8
	movl	%eax, %ecx
	shrq	%cl, %r8
.L203:
	.loc 1 147 2073 discriminator 84 view .LVU689
	cmpq	$62, %r9
	ja	.L289
	.loc 1 147 2073 discriminator 85 view .LVU690
	movq	32(%rdx), %r14
	movl	%esi, %ecx
	salq	%cl, %r14
	movq	%r14, %rcx
.L204:
	.loc 1 147 2023 discriminator 88 view .LVU691
	addq	%rcx, %r8
	.loc 1 147 2178 discriminator 88 view .LVU692
	cmpq	$63, %r10
	ja	.L290
	.loc 1 147 2219 discriminator 89 view .LVU693
	leal	-64(%rax), %ecx
	.loc 1 147 2178 discriminator 89 view .LVU694
	movq	24(%rdx), %r14
	shrq	%cl, %r14
.L205:
	.loc 1 147 2278 discriminator 92 view .LVU695
	cmpq	$62, %r13
	ja	.L291
	.loc 1 147 2317 discriminator 93 view .LVU696
	movl	$64, %ecx
	subl	%eax, %ecx
	.loc 1 147 2278 discriminator 93 view .LVU697
	movq	24(%rdx), %r15
	salq	%cl, %r15
	movq	%r15, %rcx
.L206:
	.loc 1 147 2226 discriminator 96 view .LVU698
	addq	%r14, %rcx
	.loc 1 147 2126 discriminator 96 view .LVU699
	orq	%rcx, %r8
	.loc 1 147 2382 discriminator 96 view .LVU700
	cmpq	$63, %rbx
	ja	.L292
	.loc 1 147 2419 discriminator 97 view .LVU701
	leal	-128(%rax), %ecx
	.loc 1 147 2382 discriminator 97 view .LVU702
	movq	16(%rdx), %r14
	shrq	%cl, %r14
.L207:
	.loc 1 147 2481 discriminator 100 view .LVU703
	cmpq	$62, %r11
	ja	.L293
	.loc 1 147 2517 discriminator 101 view .LVU704
	movl	$128, %ecx
	subl	%eax, %ecx
	.loc 1 147 2481 discriminator 101 view .LVU705
	movq	16(%rdx), %r15
	salq	%cl, %r15
	movq	%r15, %rcx
.L208:
	.loc 1 147 2427 discriminator 104 view .LVU706
	addq	%r14, %rcx
	.loc 1 147 2328 discriminator 104 view .LVU707
	orq	%rcx, %r8
	.loc 1 147 2582 discriminator 104 view .LVU708
	cmpq	$63, %r12
	ja	.L294
	.loc 1 147 2615 discriminator 105 view .LVU709
	leal	-192(%rax), %ecx
	.loc 1 147 2582 discriminator 105 view .LVU710
	movq	8(%rdx), %r14
	shrq	%cl, %r14
.L209:
	.loc 1 147 2677 discriminator 108 view .LVU711
	cmpq	$62, %rbp
	ja	.L295
	.loc 1 147 2709 discriminator 109 view .LVU712
	movl	$192, %ecx
	subl	%eax, %ecx
	.loc 1 147 2677 discriminator 109 view .LVU713
	movq	8(%rdx), %r15
	salq	%cl, %r15
	movq	%r15, %rcx
.L210:
	.loc 1 147 2623 discriminator 112 view .LVU714
	addq	%r14, %rcx
	.loc 1 147 2528 discriminator 112 view .LVU715
	orq	%rcx, %r8
	movq	%r8, -16(%rsp)
	movq	$-256, %r15
	subq	%rsi, %r15
	.loc 1 147 2774 discriminator 112 view .LVU716
	cmpq	$63, %r15
	ja	.L296
	.loc 1 147 2774 discriminator 113 view .LVU717
	movq	(%rdx), %r14
	movl	%eax, %ecx
	shrq	%cl, %r14
	movq	%r14, -8(%rsp)
.L211:
	.loc 1 147 2774 discriminator 113 view .LVU718
	movq	$-193, %r14
	subq	%rsi, %r14
	.loc 1 147 2865 discriminator 116 view .LVU719
	cmpq	$62, %r14
	ja	.L297
	.loc 1 147 2893 discriminator 117 view .LVU720
	movl	$256, %ecx
	subl	%eax, %ecx
	.loc 1 147 2865 discriminator 117 view .LVU721
	movq	(%rdx), %r8
	salq	%cl, %r8
	movq	%r8, %rcx
.L212:
	.loc 1 147 2811 discriminator 120 view .LVU722
	addq	-8(%rsp), %rcx
	.loc 1 147 2720 discriminator 120 view .LVU723
	movq	-16(%rsp), %r8
	orq	%rcx, %r8
	.loc 1 147 1922 discriminator 120 view .LVU724
	movq	%r8, 32(%rdi)
	.loc 1 147 2905 is_stmt 1 discriminator 120 view .LVU725
	.loc 1 147 2966 is_stmt 0 discriminator 120 view .LVU726
	cmpq	$63, %rax
	ja	.L298
	.loc 1 147 2966 discriminator 121 view .LVU727
	movq	40(%rdx), %r8
	movl	%eax, %ecx
	shrq	%cl, %r8
.L213:
	.loc 1 147 3067 discriminator 124 view .LVU728
	cmpq	$62, %r9
	ja	.L299
	.loc 1 147 3067 discriminator 125 view .LVU729
	movq	40(%rdx), %r9
	movl	%esi, %ecx
	salq	%cl, %r9
.L214:
	.loc 1 147 3017 discriminator 128 view .LVU730
	addq	%r8, %r9
	.loc 1 147 3172 discriminator 128 view .LVU731
	cmpq	$63, %r10
	ja	.L300
	.loc 1 147 3213 discriminator 129 view .LVU732
	leal	-64(%rax), %ecx
	.loc 1 147 3172 discriminator 129 view .LVU733
	movq	32(%rdx), %r8
	shrq	%cl, %r8
.L215:
	.loc 1 147 3272 discriminator 132 view .LVU734
	cmpq	$62, %r13
	ja	.L301
	.loc 1 147 3311 discriminator 133 view .LVU735
	movl	$64, %ecx
	subl	%eax, %ecx
	.loc 1 147 3272 discriminator 133 view .LVU736
	movq	32(%rdx), %r10
	salq	%cl, %r10
	movq	%r10, %rcx
.L216:
	.loc 1 147 3220 discriminator 136 view .LVU737
	addq	%rcx, %r8
	.loc 1 147 3120 discriminator 136 view .LVU738
	orq	%r9, %r8
	.loc 1 147 3376 discriminator 136 view .LVU739
	cmpq	$63, %rbx
	ja	.L302
	.loc 1 147 3413 discriminator 137 view .LVU740
	leal	-128(%rax), %ecx
	.loc 1 147 3376 discriminator 137 view .LVU741
	movq	24(%rdx), %r10
	shrq	%cl, %r10
.L217:
	.loc 1 147 3475 discriminator 140 view .LVU742
	cmpq	$62, %r11
	ja	.L303
	.loc 1 147 3511 discriminator 141 view .LVU743
	movl	$128, %ecx
	subl	%eax, %ecx
	.loc 1 147 3475 discriminator 141 view .LVU744
	movq	24(%rdx), %rbx
	salq	%cl, %rbx
	movq	%rbx, %rcx
.L218:
	.loc 1 147 3421 discriminator 144 view .LVU745
	addq	%rcx, %r10
	.loc 1 147 3322 discriminator 144 view .LVU746
	orq	%r8, %r10
	.loc 1 147 3576 discriminator 144 view .LVU747
	cmpq	$63, %r12
	ja	.L304
	.loc 1 147 3609 discriminator 145 view .LVU748
	leal	-192(%rax), %ecx
	.loc 1 147 3576 discriminator 145 view .LVU749
	movq	16(%rdx), %r9
	shrq	%cl, %r9
.L219:
	.loc 1 147 3671 discriminator 148 view .LVU750
	cmpq	$62, %rbp
	ja	.L305
	.loc 1 147 3703 discriminator 149 view .LVU751
	movl	$192, %ecx
	subl	%eax, %ecx
	.loc 1 147 3671 discriminator 149 view .LVU752
	movq	16(%rdx), %r8
	salq	%cl, %r8
.L220:
	.loc 1 147 3617 discriminator 152 view .LVU753
	addq	%r8, %r9
	.loc 1 147 3522 discriminator 152 view .LVU754
	orq	%r9, %r10
	movq	%r10, %r8
	.loc 1 147 3768 discriminator 152 view .LVU755
	cmpq	$63, %r15
	ja	.L306
	.loc 1 147 3768 discriminator 153 view .LVU756
	movq	8(%rdx), %r9
	movl	%eax, %ecx
	shrq	%cl, %r9
.L221:
	.loc 1 147 3859 discriminator 156 view .LVU757
	cmpq	$62, %r14
	ja	.L307
	.loc 1 147 3887 discriminator 157 view .LVU758
	movl	$256, %ecx
	subl	%eax, %ecx
	.loc 1 147 3859 discriminator 157 view .LVU759
	movq	8(%rdx), %rbx
	salq	%cl, %rbx
	movq	%rbx, %rcx
.L222:
	.loc 1 147 3805 discriminator 160 view .LVU760
	addq	%rcx, %r9
	.loc 1 147 3714 discriminator 160 view .LVU761
	orq	%r9, %r8
	.loc 1 147 3952 discriminator 160 view .LVU762
	movq	$-320, %rcx
	subq	%rsi, %rcx
	cmpq	$63, %rcx
	ja	.L308
	.loc 1 147 3977 discriminator 161 view .LVU763
	leal	-320(%rax), %ecx
	.loc 1 147 3952 discriminator 161 view .LVU764
	movq	(%rdx), %r9
	shrq	%cl, %r9
.L223:
	.loc 1 147 4039 discriminator 164 view .LVU765
	movq	$-257, %rcx
	subq	%rsi, %rcx
	cmpq	$62, %rcx
	ja	.L309
	.loc 1 147 4047 discriminator 165 view .LVU766
	movq	(%rdx), %rdx
.LVL24:
	.loc 1 147 4063 discriminator 165 view .LVU767
	movl	$320, %ecx
	subl	%eax, %ecx
	.loc 1 147 4039 discriminator 165 view .LVU768
	movq	%rdx, %rax
.LVL25:
	.loc 1 147 4039 discriminator 165 view .LVU769
	salq	%cl, %rax
.L224:
	.loc 1 147 3985 discriminator 168 view .LVU770
	addq	%rax, %r9
	.loc 1 147 3898 discriminator 168 view .LVU771
	orq	%r8, %r9
	.loc 1 147 2916 discriminator 168 view .LVU772
	movq	%r9, 40(%rdi)
	.loc 1 147 4074 is_stmt 1 discriminator 168 view .LVU773
	jmp	.L225
.LVL26:
.L268:
	.loc 1 147 70 is_stmt 0 view .LVU774
	movl	$0, %r8d
	jmp	.L183
.L269:
	.loc 1 147 155 view .LVU775
	movl	$0, %ecx
	jmp	.L184
.L270:
	.loc 1 147 254 view .LVU776
	movl	$0, %r8d
	jmp	.L185
.L271:
	.loc 1 147 343 view .LVU777
	movl	$0, %ecx
	jmp	.L186
.L272:
	.loc 1 147 436 view .LVU778
	movl	$0, %r11d
	jmp	.L187
.L273:
	.loc 1 147 524 view .LVU779
	movl	$0, %ecx
	jmp	.L188
.L274:
	.loc 1 147 624 view .LVU780
	movl	$0, %r11d
	jmp	.L189
.L275:
	.loc 1 147 717 view .LVU781
	movl	$0, %ecx
	jmp	.L190
.L276:
	.loc 1 147 814 view .LVU782
	movl	$0, %r8d
	jmp	.L191
.L277:
	.loc 1 147 906 view .LVU783
	movl	$0, %ecx
	jmp	.L192
.L278:
	.loc 1 147 1002 view .LVU784
	movl	$0, %ebp
	jmp	.L193
.L279:
	.loc 1 147 1093 view .LVU785
	movl	$0, %ecx
	jmp	.L194
.L280:
	.loc 1 147 1194 view .LVU786
	movl	$0, %r8d
	jmp	.L195
.L281:
	.loc 1 147 1291 view .LVU787
	movl	$0, %ecx
	jmp	.L196
.L282:
	.loc 1 147 1392 view .LVU788
	movl	$0, %ebp
	jmp	.L197
.L283:
	.loc 1 147 1488 view .LVU789
	movl	$0, %ecx
	jmp	.L198
.L284:
	.loc 1 147 1588 view .LVU790
	movl	$0, %r8d
	jmp	.L199
.L285:
	.loc 1 147 1683 view .LVU791
	movl	$0, %ecx
	jmp	.L200
.L286:
	.loc 1 147 1780 view .LVU792
	movl	$0, %r14d
	jmp	.L201
.L287:
	.loc 1 147 1871 view .LVU793
	movl	$0, %ecx
	jmp	.L202
.L288:
	.loc 1 147 1972 view .LVU794
	movl	$0, %r8d
	jmp	.L203
.L289:
	.loc 1 147 2073 view .LVU795
	movl	$0, %ecx
	jmp	.L204
.L290:
	.loc 1 147 2178 view .LVU796
	movl	$0, %r14d
	jmp	.L205
.L291:
	.loc 1 147 2278 view .LVU797
	movl	$0, %ecx
	jmp	.L206
.L292:
	.loc 1 147 2382 view .LVU798
	movl	$0, %r14d
	jmp	.L207
.L293:
	.loc 1 147 2481 view .LVU799
	movl	$0, %ecx
	jmp	.L208
.L294:
	.loc 1 147 2582 view .LVU800
	movl	$0, %r14d
	jmp	.L209
.L295:
	.loc 1 147 2677 view .LVU801
	movl	$0, %ecx
	jmp	.L210
.L296:
	.loc 1 147 2774 view .LVU802
	movq	$0, -8(%rsp)
	jmp	.L211
.L297:
	.loc 1 147 2865 view .LVU803
	movl	$0, %ecx
	jmp	.L212
.L298:
	.loc 1 147 2966 view .LVU804
	movl	$0, %r8d
	jmp	.L213
.L299:
	.loc 1 147 3067 view .LVU805
	movl	$0, %r9d
	jmp	.L214
.L300:
	.loc 1 147 3172 view .LVU806
	movl	$0, %r8d
	jmp	.L215
.L301:
	.loc 1 147 3272 view .LVU807
	movl	$0, %ecx
	jmp	.L216
.L302:
	.loc 1 147 3376 view .LVU808
	movl	$0, %r10d
	jmp	.L217
.L303:
	.loc 1 147 3475 view .LVU809
	movl	$0, %ecx
	jmp	.L218
.L304:
	.loc 1 147 3576 view .LVU810
	movl	$0, %r9d
	jmp	.L219
.L305:
	.loc 1 147 3671 view .LVU811
	movl	$0, %r8d
	jmp	.L220
.L306:
	.loc 1 147 3768 view .LVU812
	movl	$0, %r9d
	jmp	.L221
.L307:
	.loc 1 147 3859 view .LVU813
	movl	$0, %ecx
	jmp	.L222
.L308:
	.loc 1 147 3952 view .LVU814
	movl	$0, %r9d
	jmp	.L223
.L309:
	.loc 1 147 4039 view .LVU815
	movl	$0, %eax
.LVL27:
	.loc 1 147 4039 view .LVU816
	jmp	.L224
.LVL28:
.L310:
	.loc 1 151 70 view .LVU817
	movl	$0, %eax
.L226:
	.loc 1 151 105 discriminator 4 view .LVU818
	leaq	63(%rsi), %r14
	.loc 1 151 153 discriminator 4 view .LVU819
	cmpq	$-63, %rsi
	jb	.L311
	.loc 1 151 170 discriminator 5 view .LVU820
	movl	%esi, %ecx
	negl	%ecx
	.loc 1 151 153 discriminator 5 view .LVU821
	movq	40(%rdx), %rbx
	shrq	%cl, %rbx
	movq	%rbx, %rcx
	jmp	.L227
.L311:
	.loc 1 151 153 view .LVU822
	movl	$0, %ecx
.L227:
	.loc 1 151 103 discriminator 8 view .LVU823
	addq	%rcx, %rax
	.loc 1 151 20 discriminator 8 view .LVU824
	movq	%rax, 40(%rdi)
	.loc 1 151 189 is_stmt 1 discriminator 8 view .LVU825
	.loc 1 151 250 is_stmt 0 discriminator 8 view .LVU826
	cmpq	$63, %rsi
	ja	.L312
	.loc 1 151 250 discriminator 9 view .LVU827
	movq	32(%rdx), %rax
	movl	%esi, %ecx
	salq	%cl, %rax
	jmp	.L228
.L312:
	.loc 1 151 250 view .LVU828
	movl	$0, %eax
.L228:
	.loc 1 151 337 discriminator 12 view .LVU829
	cmpq	$62, %r14
	ja	.L313
	.loc 1 151 358 discriminator 13 view .LVU830
	movl	%esi, %ecx
	negl	%ecx
	.loc 1 151 337 discriminator 13 view .LVU831
	movq	32(%rdx), %rbx
	shrq	%cl, %rbx
	movq	%rbx, %rcx
	jmp	.L229
.L313:
	.loc 1 151 337 view .LVU832
	movl	$0, %ecx
.L229:
	.loc 1 151 287 discriminator 16 view .LVU833
	addq	%rcx, %rax
	.loc 1 151 379 discriminator 16 view .LVU834
	leaq	-64(%rsi), %r9
	.loc 1 151 428 discriminator 16 view .LVU835
	cmpq	$63, %r9
	ja	.L314
	.loc 1 151 455 discriminator 17 view .LVU836
	leal	-64(%rsi), %ecx
	.loc 1 151 428 discriminator 17 view .LVU837
	movq	40(%rdx), %r10
	salq	%cl, %r10
	jmp	.L230
.L314:
	.loc 1 151 428 view .LVU838
	movl	$0, %r10d
.L230:
	.loc 1 151 464 discriminator 20 view .LVU839
	leaq	-1(%rsi), %r8
	.loc 1 151 514 discriminator 20 view .LVU840
	cmpq	$62, %r8
	ja	.L315
	.loc 1 151 539 discriminator 21 view .LVU841
	movl	$64, %ecx
	subl	%esi, %ecx
	.loc 1 151 514 discriminator 21 view .LVU842
	movq	40(%rdx), %rbx
	shrq	%cl, %rbx
	movq	%rbx, %rcx
	jmp	.L231
.L315:
	.loc 1 151 514 view .LVU843
	movl	$0, %ecx
.L231:
	.loc 1 151 462 discriminator 24 view .LVU844
	addq	%rcx, %r10
	.loc 1 151 376 discriminator 24 view .LVU845
	orq	%r10, %rax
	.loc 1 151 200 discriminator 24 view .LVU846
	movq	%rax, 32(%rdi)
	.loc 1 151 551 is_stmt 1 discriminator 24 view .LVU847
	.loc 1 151 612 is_stmt 0 discriminator 24 view .LVU848
	cmpq	$63, %rsi
	ja	.L316
	.loc 1 151 612 discriminator 25 view .LVU849
	movq	24(%rdx), %rax
	movl	%esi, %ecx
	salq	%cl, %rax
	jmp	.L232
.L316:
	.loc 1 151 612 view .LVU850
	movl	$0, %eax
.L232:
	.loc 1 151 703 discriminator 28 view .LVU851
	cmpq	$62, %r14
	ja	.L317
	.loc 1 151 728 discriminator 29 view .LVU852
	movl	%esi, %ecx
	negl	%ecx
	.loc 1 151 703 discriminator 29 view .LVU853
	movq	24(%rdx), %rbx
	shrq	%cl, %rbx
	movq	%rbx, %rcx
	jmp	.L233
.L317:
	.loc 1 151 703 view .LVU854
	movl	$0, %ecx
.L233:
	.loc 1 151 653 discriminator 32 view .LVU855
	addq	%rcx, %rax
	.loc 1 151 798 discriminator 32 view .LVU856
	cmpq	$63, %r9
	ja	.L318
	.loc 1 151 829 discriminator 33 view .LVU857
	leal	-64(%rsi), %ecx
	.loc 1 151 798 discriminator 33 view .LVU858
	movq	32(%rdx), %r10
	salq	%cl, %r10
	jmp	.L234
.L318:
	.loc 1 151 798 view .LVU859
	movl	$0, %r10d
.L234:
	.loc 1 151 888 discriminator 36 view .LVU860
	cmpq	$62, %r8
	ja	.L319
	.loc 1 151 917 discriminator 37 view .LVU861
	movl	$64, %ecx
	subl	%esi, %ecx
	.loc 1 151 888 discriminator 37 view .LVU862
	movq	32(%rdx), %rbx
	shrq	%cl, %rbx
	movq	%rbx, %rcx
	jmp	.L235
.L319:
	.loc 1 151 888 view .LVU863
	movl	$0, %ecx
.L235:
	.loc 1 151 836 discriminator 40 view .LVU864
	addq	%rcx, %r10
	.loc 1 151 746 discriminator 40 view .LVU865
	orq	%r10, %rax
	.loc 1 151 931 discriminator 40 view .LVU866
	leaq	-128(%rsi), %r11
	.loc 1 151 982 discriminator 40 view .LVU867
	cmpq	$63, %r11
	ja	.L320
	.loc 1 151 1009 discriminator 41 view .LVU868
	leal	-128(%rsi), %ecx
	.loc 1 151 982 discriminator 41 view .LVU869
	movq	40(%rdx), %rbx
	salq	%cl, %rbx
	jmp	.L236
.L320:
	.loc 1 151 982 view .LVU870
	movl	$0, %ebx
.L236:
	.loc 1 151 1019 discriminator 44 view .LVU871
	leaq	-65(%rsi), %r10
	.loc 1 151 1071 discriminator 44 view .LVU872
	cmpq	$62, %r10
	ja	.L321
	.loc 1 151 1097 discriminator 45 view .LVU873
	movl	$128, %ecx
	subl	%esi, %ecx
	.loc 1 151 1071 discriminator 45 view .LVU874
	movq	40(%rdx), %r15
	shrq	%cl, %r15
	movq	%r15, %rcx
	jmp	.L237
.L321:
	.loc 1 151 1071 view .LVU875
	movl	$0, %ecx
.L237:
	.loc 1 151 1017 discriminator 48 view .LVU876
	addq	%rcx, %rbx
	.loc 1 151 928 discriminator 48 view .LVU877
	orq	%rax, %rbx
	.loc 1 151 562 discriminator 48 view .LVU878
	movq	%rbx, 24(%rdi)
	.loc 1 151 1109 is_stmt 1 discriminator 48 view .LVU879
	.loc 1 151 1170 is_stmt 0 discriminator 48 view .LVU880
	cmpq	$63, %rsi
	ja	.L322
	.loc 1 151 1170 discriminator 49 view .LVU881
	movq	16(%rdx), %rbx
	movl	%esi, %ecx
	salq	%cl, %rbx
	jmp	.L238
.L322:
	.loc 1 151 1170 view .LVU882
	movl	$0, %ebx
.L238:
	.loc 1 151 1265 discriminator 52 view .LVU883
	cmpq	$62, %r14
	ja	.L323
	.loc 1 151 1294 discriminator 53 view .LVU884
	movl	%esi, %ecx
	negl	%ecx
	.loc 1 151 1265 discriminator 53 view .LVU885
	movq	16(%rdx), %rax
	shrq	%cl, %rax
	jmp	.L239
.L323:
	.loc 1 151 1265 view .LVU886
	movl	$0, %eax
.L239:
	.loc 1 151 1215 discriminator 56 view .LVU887
	addq	%rbx, %rax
	.loc 1 151 1364 discriminator 56 view .LVU888
	cmpq	$63, %r9
	ja	.L324
	.loc 1 151 1399 discriminator 57 view .LVU889
	leal	-64(%rsi), %ecx
	.loc 1 151 1364 discriminator 57 view .LVU890
	movq	24(%rdx), %rbx
	salq	%cl, %rbx
	jmp	.L240
.L324:
	.loc 1 151 1364 view .LVU891
	movl	$0, %ebx
.L240:
	.loc 1 151 1458 discriminator 60 view .LVU892
	cmpq	$62, %r8
	ja	.L325
	.loc 1 151 1491 discriminator 61 view .LVU893
	movl	$64, %ecx
	subl	%esi, %ecx
	.loc 1 151 1458 discriminator 61 view .LVU894
	movq	24(%rdx), %r15
	shrq	%cl, %r15
	movq	%r15, %rcx
	jmp	.L241
.L325:
	.loc 1 151 1458 view .LVU895
	movl	$0, %ecx
.L241:
	.loc 1 151 1406 discriminator 64 view .LVU896
	addq	%rcx, %rbx
	.loc 1 151 1312 discriminator 64 view .LVU897
	orq	%rbx, %rax
	.loc 1 151 1556 discriminator 64 view .LVU898
	cmpq	$63, %r11
	ja	.L326
	.loc 1 151 1587 discriminator 65 view .LVU899
	leal	-128(%rsi), %ecx
	.loc 1 151 1556 discriminator 65 view .LVU900
	movq	32(%rdx), %rbx
	salq	%cl, %rbx
	jmp	.L242
.L326:
	.loc 1 151 1556 view .LVU901
	movl	$0, %ebx
.L242:
	.loc 1 151 1649 discriminator 68 view .LVU902
	cmpq	$62, %r10
	ja	.L327
	.loc 1 151 1679 discriminator 69 view .LVU903
	movl	$128, %ecx
	subl	%esi, %ecx
	.loc 1 151 1649 discriminator 69 view .LVU904
	movq	32(%rdx), %r15
	shrq	%cl, %r15
	movq	%r15, %rcx
	jmp	.L243
.L327:
	.loc 1 151 1649 view .LVU905
	movl	$0, %ecx
.L243:
	.loc 1 151 1595 discriminator 72 view .LVU906
	addq	%rcx, %rbx
	.loc 1 151 1502 discriminator 72 view .LVU907
	orq	%rbx, %rax
	.loc 1 151 1693 discriminator 72 view .LVU908
	leaq	-192(%rsi), %rbp
	.loc 1 151 1744 discriminator 72 view .LVU909
	cmpq	$63, %rbp
	ja	.L328
	.loc 1 151 1771 discriminator 73 view .LVU910
	leal	-192(%rsi), %ecx
	.loc 1 151 1744 discriminator 73 view .LVU911
	movq	40(%rdx), %r12
	salq	%cl, %r12
	jmp	.L244
.L328:
	.loc 1 151 1744 view .LVU912
	movl	$0, %r12d
.L244:
	.loc 1 151 1781 discriminator 76 view .LVU913
	leaq	-129(%rsi), %rbx
	.loc 1 151 1833 discriminator 76 view .LVU914
	cmpq	$62, %rbx
	ja	.L329
	.loc 1 151 1859 discriminator 77 view .LVU915
	movl	$192, %ecx
	subl	%esi, %ecx
	.loc 1 151 1833 discriminator 77 view .LVU916
	movq	40(%rdx), %r15
	shrq	%cl, %r15
	movq	%r15, %rcx
	jmp	.L245
.L329:
	.loc 1 151 1833 view .LVU917
	movl	$0, %ecx
.L245:
	.loc 1 151 1779 discriminator 80 view .LVU918
	addq	%r12, %rcx
	.loc 1 151 1690 discriminator 80 view .LVU919
	orq	%rcx, %rax
	.loc 1 151 1120 discriminator 80 view .LVU920
	movq	%rax, 16(%rdi)
	.loc 1 151 1871 is_stmt 1 discriminator 80 view .LVU921
	.loc 1 151 1932 is_stmt 0 discriminator 80 view .LVU922
	cmpq	$63, %rsi
	ja	.L330
	.loc 1 151 1932 discriminator 81 view .LVU923
	movq	8(%rdx), %r12
	movl	%esi, %ecx
	salq	%cl, %r12
	jmp	.L246
.L330:
	.loc 1 151 1932 view .LVU924
	movl	$0, %r12d
.L246:
	.loc 1 151 2031 discriminator 84 view .LVU925
	cmpq	$62, %r14
	ja	.L331
	.loc 1 151 2064 discriminator 85 view .LVU926
	movl	%esi, %ecx
	negl	%ecx
	.loc 1 151 2031 discriminator 85 view .LVU927
	movq	8(%rdx), %rax
	shrq	%cl, %rax
	jmp	.L247
.L331:
	.loc 1 151 2031 view .LVU928
	movl	$0, %eax
.L247:
	.loc 1 151 1981 discriminator 88 view .LVU929
	addq	%r12, %rax
	.loc 1 151 2134 discriminator 88 view .LVU930
	cmpq	$63, %r9
	ja	.L332
	.loc 1 151 2173 discriminator 89 view .LVU931
	leal	-64(%rsi), %ecx
	.loc 1 151 2134 discriminator 89 view .LVU932
	movq	16(%rdx), %r13
	salq	%cl, %r13
	jmp	.L248
.L332:
	.loc 1 151 2134 view .LVU933
	movl	$0, %r13d
.L248:
	.loc 1 151 2232 discriminator 92 view .LVU934
	cmpq	$62, %r8
	ja	.L333
	.loc 1 151 2269 discriminator 93 view .LVU935
	movl	$64, %ecx
	subl	%esi, %ecx
	.loc 1 151 2232 discriminator 93 view .LVU936
	movq	16(%rdx), %r15
	shrq	%cl, %r15
	movq	%r15, %rcx
	jmp	.L249
.L333:
	.loc 1 151 2232 view .LVU937
	movl	$0, %ecx
.L249:
	.loc 1 151 2180 discriminator 96 view .LVU938
	addq	%r13, %rcx
	.loc 1 151 2082 discriminator 96 view .LVU939
	orq	%rcx, %rax
	.loc 1 151 2334 discriminator 96 view .LVU940
	cmpq	$63, %r11
	ja	.L334
	.loc 1 151 2369 discriminator 97 view .LVU941
	leal	-128(%rsi), %ecx
	.loc 1 151 2334 discriminator 97 view .LVU942
	movq	24(%rdx), %r12
	salq	%cl, %r12
	jmp	.L250
.L334:
	.loc 1 151 2334 view .LVU943
	movl	$0, %r12d
.L250:
	.loc 1 151 2431 discriminator 100 view .LVU944
	cmpq	$62, %r10
	ja	.L335
	.loc 1 151 2465 discriminator 101 view .LVU945
	movl	$128, %ecx
	subl	%esi, %ecx
	.loc 1 151 2431 discriminator 101 view .LVU946
	movq	24(%rdx), %r15
	shrq	%cl, %r15
	movq	%r15, %rcx
	jmp	.L251
.L335:
	.loc 1 151 2431 view .LVU947
	movl	$0, %ecx
.L251:
	.loc 1 151 2377 discriminator 104 view .LVU948
	addq	%r12, %rcx
	.loc 1 151 2280 discriminator 104 view .LVU949
	orq	%rcx, %rax
	.loc 1 151 2530 discriminator 104 view .LVU950
	cmpq	$63, %rbp
	ja	.L336
	.loc 1 151 2561 discriminator 105 view .LVU951
	leal	-192(%rsi), %ecx
	.loc 1 151 2530 discriminator 105 view .LVU952
	movq	32(%rdx), %r12
	salq	%cl, %r12
	jmp	.L252
.L336:
	.loc 1 151 2530 view .LVU953
	movl	$0, %r12d
.L252:
	.loc 1 151 2623 discriminator 108 view .LVU954
	cmpq	$62, %rbx
	ja	.L337
	.loc 1 151 2653 discriminator 109 view .LVU955
	movl	$192, %ecx
	subl	%esi, %ecx
	.loc 1 151 2623 discriminator 109 view .LVU956
	movq	32(%rdx), %r15
	shrq	%cl, %r15
	movq	%r15, %rcx
	jmp	.L253
.L337:
	.loc 1 151 2623 view .LVU957
	movl	$0, %ecx
.L253:
	.loc 1 151 2569 discriminator 112 view .LVU958
	addq	%r12, %rcx
	.loc 1 151 2476 discriminator 112 view .LVU959
	orq	%rcx, %rax
	movq	%rax, -16(%rsp)
	.loc 1 151 2667 discriminator 112 view .LVU960
	leaq	-256(%rsi), %r13
	.loc 1 151 2718 discriminator 112 view .LVU961
	cmpq	$63, %r13
	ja	.L338
	.loc 1 151 2718 discriminator 113 view .LVU962
	movq	40(%rdx), %r15
	movl	%esi, %ecx
	salq	%cl, %r15
	jmp	.L254
.L338:
	.loc 1 151 2718 view .LVU963
	movl	$0, %r15d
.L254:
	.loc 1 151 2755 discriminator 116 view .LVU964
	leaq	-193(%rsi), %r12
	.loc 1 151 2807 discriminator 116 view .LVU965
	cmpq	$62, %r12
	ja	.L339
	.loc 1 151 2833 discriminator 117 view .LVU966
	movl	$256, %ecx
	subl	%esi, %ecx
	.loc 1 151 2807 discriminator 117 view .LVU967
	movq	40(%rdx), %rax
	shrq	%cl, %rax
	movq	%rax, %rcx
	jmp	.L255
.L339:
	.loc 1 151 2807 view .LVU968
	movl	$0, %ecx
.L255:
	.loc 1 151 2753 discriminator 120 view .LVU969
	addq	%r15, %rcx
	.loc 1 151 2664 discriminator 120 view .LVU970
	movq	-16(%rsp), %rax
	orq	%rcx, %rax
	.loc 1 151 1882 discriminator 120 view .LVU971
	movq	%rax, 8(%rdi)
	.loc 1 151 2845 is_stmt 1 discriminator 120 view .LVU972
	.loc 1 151 2906 is_stmt 0 discriminator 120 view .LVU973
	cmpq	$63, %rsi
	ja	.L340
	.loc 1 151 2906 discriminator 121 view .LVU974
	movq	(%rdx), %r15
	movl	%esi, %ecx
	salq	%cl, %r15
	jmp	.L256
.L340:
	.loc 1 151 2906 view .LVU975
	movl	$0, %r15d
.L256:
	.loc 1 151 3005 discriminator 124 view .LVU976
	cmpq	$62, %r14
	ja	.L341
	.loc 1 151 3038 discriminator 125 view .LVU977
	movl	%esi, %ecx
	negl	%ecx
	.loc 1 151 3005 discriminator 125 view .LVU978
	movq	(%rdx), %rax
	shrq	%cl, %rax
	jmp	.L257
.L341:
	.loc 1 151 3005 view .LVU979
	movl	$0, %eax
.L257:
	.loc 1 151 2955 discriminator 128 view .LVU980
	leaq	(%r15,%rax), %r14
	.loc 1 151 3108 discriminator 128 view .LVU981
	cmpq	$63, %r9
	ja	.L342
	.loc 1 151 3147 discriminator 129 view .LVU982
	leal	-64(%rsi), %ecx
	.loc 1 151 3108 discriminator 129 view .LVU983
	movq	8(%rdx), %rax
	salq	%cl, %rax
	jmp	.L258
.L342:
	.loc 1 151 3108 view .LVU984
	movl	$0, %eax
.L258:
	.loc 1 151 3206 discriminator 132 view .LVU985
	cmpq	$62, %r8
	ja	.L343
	.loc 1 151 3243 discriminator 133 view .LVU986
	movl	$64, %ecx
	subl	%esi, %ecx
	.loc 1 151 3206 discriminator 133 view .LVU987
	movq	8(%rdx), %r15
	shrq	%cl, %r15
	movq	%r15, %rcx
	jmp	.L259
.L343:
	.loc 1 151 3206 view .LVU988
	movl	$0, %ecx
.L259:
	.loc 1 151 3154 discriminator 136 view .LVU989
	addq	%rcx, %rax
	.loc 1 151 3056 discriminator 136 view .LVU990
	orq	%r14, %rax
	.loc 1 151 3308 discriminator 136 view .LVU991
	cmpq	$63, %r11
	ja	.L344
	.loc 1 151 3343 discriminator 137 view .LVU992
	leal	-128(%rsi), %ecx
	.loc 1 151 3308 discriminator 137 view .LVU993
	movq	16(%rdx), %r8
	salq	%cl, %r8
	jmp	.L260
.L344:
	.loc 1 151 3308 view .LVU994
	movl	$0, %r8d
.L260:
	.loc 1 151 3405 discriminator 140 view .LVU995
	cmpq	$62, %r10
	ja	.L345
	.loc 1 151 3439 discriminator 141 view .LVU996
	movl	$128, %ecx
	subl	%esi, %ecx
	.loc 1 151 3405 discriminator 141 view .LVU997
	movq	16(%rdx), %r11
	shrq	%cl, %r11
	movq	%r11, %rcx
	jmp	.L261
.L345:
	.loc 1 151 3405 view .LVU998
	movl	$0, %ecx
.L261:
	.loc 1 151 3351 discriminator 144 view .LVU999
	addq	%rcx, %r8
	.loc 1 151 3254 discriminator 144 view .LVU1000
	orq	%r8, %rax
	.loc 1 151 3504 discriminator 144 view .LVU1001
	cmpq	$63, %rbp
	ja	.L346
	.loc 1 151 3535 discriminator 145 view .LVU1002
	leal	-192(%rsi), %ecx
	.loc 1 151 3504 discriminator 145 view .LVU1003
	movq	24(%rdx), %r8
	salq	%cl, %r8
	jmp	.L262
.L346:
	.loc 1 151 3504 view .LVU1004
	movl	$0, %r8d
.L262:
	.loc 1 151 3597 discriminator 148 view .LVU1005
	cmpq	$62, %rbx
	ja	.L347
	.loc 1 151 3627 discriminator 149 view .LVU1006
	movl	$192, %ecx
	subl	%esi, %ecx
	.loc 1 151 3597 discriminator 149 view .LVU1007
	movq	24(%rdx), %rbx
	shrq	%cl, %rbx
	movq	%rbx, %rcx
	jmp	.L263
.L347:
	.loc 1 151 3597 view .LVU1008
	movl	$0, %ecx
.L263:
	.loc 1 151 3543 discriminator 152 view .LVU1009
	addq	%rcx, %r8
	.loc 1 151 3450 discriminator 152 view .LVU1010
	orq	%r8, %rax
	.loc 1 151 3692 discriminator 152 view .LVU1011
	cmpq	$63, %r13
	ja	.L348
	.loc 1 151 3692 discriminator 153 view .LVU1012
	movq	32(%rdx), %r8
	movl	%esi, %ecx
	salq	%cl, %r8
	jmp	.L264
.L348:
	.loc 1 151 3692 view .LVU1013
	movl	$0, %r8d
.L264:
	.loc 1 151 3781 discriminator 156 view .LVU1014
	cmpq	$62, %r12
	ja	.L349
	.loc 1 151 3807 discriminator 157 view .LVU1015
	movl	$256, %ecx
	subl	%esi, %ecx
	.loc 1 151 3781 discriminator 157 view .LVU1016
	movq	32(%rdx), %rbx
	shrq	%cl, %rbx
	movq	%rbx, %rcx
	jmp	.L265
.L349:
	.loc 1 151 3781 view .LVU1017
	movl	$0, %ecx
.L265:
	.loc 1 151 3727 discriminator 160 view .LVU1018
	addq	%rcx, %r8
	.loc 1 151 3638 discriminator 160 view .LVU1019
	orq	%r8, %rax
	.loc 1 151 3821 discriminator 160 view .LVU1020
	leaq	-320(%rsi), %rcx
	.loc 1 151 3872 discriminator 160 view .LVU1021
	cmpq	$63, %rcx
	ja	.L350
	.loc 1 151 3895 discriminator 161 view .LVU1022
	leal	-320(%rsi), %ecx
	.loc 1 151 3872 discriminator 161 view .LVU1023
	movq	40(%rdx), %r8
	salq	%cl, %r8
	jmp	.L266
.L350:
	.loc 1 151 3872 view .LVU1024
	movl	$0, %r8d
.L266:
	.loc 1 151 3905 discriminator 164 view .LVU1025
	leaq	-257(%rsi), %rcx
	.loc 1 151 3957 discriminator 164 view .LVU1026
	cmpq	$62, %rcx
	ja	.L351
	.loc 1 151 3964 discriminator 165 view .LVU1027
	movq	40(%rdx), %rdx
.LVL29:
	.loc 1 151 3979 discriminator 165 view .LVU1028
	movl	$320, %ecx
	subl	%esi, %ecx
	.loc 1 151 3957 discriminator 165 view .LVU1029
	shrq	%cl, %rdx
	jmp	.L267
.LVL30:
.L351:
	.loc 1 151 3957 view .LVU1030
	movl	$0, %edx
.LVL31:
.L267:
	.loc 1 151 3903 discriminator 168 view .LVU1031
	addq	%rdx, %r8
	.loc 1 151 3818 discriminator 168 view .LVU1032
	orq	%r8, %rax
	.loc 1 151 2856 discriminator 168 view .LVU1033
	movq	%rax, (%rdi)
.LVL32:
.L225:
	.loc 1 151 3990 is_stmt 1 discriminator 169 view .LVU1034
	.loc 1 154 5 discriminator 169 view .LVU1035
	.loc 1 155 1 is_stmt 0 discriminator 169 view .LVU1036
	movq	%rdi, %rax
	popq	%rbx
	.cfi_def_cfa_offset 48
	popq	%rbp
	.cfi_def_cfa_offset 40
	popq	%r12
	.cfi_def_cfa_offset 32
	popq	%r13
	.cfi_def_cfa_offset 24
	popq	%r14
	.cfi_def_cfa_offset 16
	popq	%r15
	.cfi_def_cfa_offset 8
	ret
	.cfi_endproc
.LFE30:
	.size	biguint_lsh, .-biguint_lsh
	.globl	biguint_rrot
	.type	biguint_rrot, @function
biguint_rrot:
.LVL33:
.LFB31:
	.loc 1 158 1 is_stmt 1 view -0
	.cfi_startproc
	.loc 1 158 1 is_stmt 0 view .LVU1038
	pushq	%r15
	.cfi_def_cfa_offset 16
	.cfi_offset 15, -16
	pushq	%r14
	.cfi_def_cfa_offset 24
	.cfi_offset 14, -24
	pushq	%r13
	.cfi_def_cfa_offset 32
	.cfi_offset 13, -32
	pushq	%r12
	.cfi_def_cfa_offset 40
	.cfi_offset 12, -40
	pushq	%rbp
	.cfi_def_cfa_offset 48
	.cfi_offset 6, -48
	pushq	%rbx
	.cfi_def_cfa_offset 56
	.cfi_offset 3, -56
	movq	%rsi, %rcx
	movq	%rdx, %rsi
.LVL34:
	.loc 1 159 5 is_stmt 1 view .LVU1039
	.loc 1 159 22 is_stmt 0 view .LVU1040
	movabsq	$3074457345618258603, %rdx
.LVL35:
	.loc 1 159 22 view .LVU1041
	movq	%rcx, %rax
	imulq	%rdx
	sarq	$6, %rdx
	movq	%rcx, %rax
	sarq	$63, %rax
	subq	%rax, %rdx
	leaq	(%rdx,%rdx,2), %rax
	salq	$7, %rax
	movq	%rcx, %rdx
	subq	%rax, %rdx
	.loc 1 159 36 view .LVU1042
	testq	%rcx, %rcx
	js	.L696
	movl	$0, %eax
.L355:
.LVL36:
	.loc 1 161 5 is_stmt 1 discriminator 4 view .LVU1043
	.loc 1 165 5 discriminator 4 view .LVU1044
	.loc 1 165 8 is_stmt 0 discriminator 4 view .LVU1045
	addq	%rax, %rdx
.LVL37:
	.loc 1 165 8 discriminator 4 view .LVU1046
	js	.L697
	.loc 1 174 9 is_stmt 1 view .LVU1047
	.loc 1 174 71 is_stmt 0 view .LVU1048
	cmpq	$63, %rdx
	ja	.L611
	.loc 1 174 71 discriminator 1 view .LVU1049
	movq	(%rsi), %rax
	movl	%edx, %ecx
	shrq	%cl, %rax
	jmp	.L442
.LVL38:
.L696:
	.loc 1 159 36 view .LVU1050
	movl	$384, %eax
	jmp	.L355
.LVL39:
.L697:
	.loc 1 167 9 is_stmt 1 view .LVU1051
	.loc 1 167 16 is_stmt 0 view .LVU1052
	movq	%rdx, %rax
	negq	%rax
.LVL40:
	.loc 1 168 9 is_stmt 1 view .LVU1053
	.loc 1 168 71 is_stmt 0 view .LVU1054
	cmpq	$63, %rax
	ja	.L527
	.loc 1 168 71 discriminator 1 view .LVU1055
	movq	40(%rsi), %r8
	movl	%eax, %ecx
	salq	%cl, %r8
.L357:
	.loc 1 168 71 discriminator 1 view .LVU1056
	movl	$63, %r9d
	subq	%rdx, %r9
	.loc 1 168 154 discriminator 4 view .LVU1057
	cmpq	$62, %r9
	ja	.L528
	.loc 1 168 154 discriminator 5 view .LVU1058
	movq	40(%rsi), %rbx
	movl	%edx, %ecx
	shrq	%cl, %rbx
	movq	%rbx, %rcx
.L358:
	.loc 1 168 104 discriminator 8 view .LVU1059
	addq	%rcx, %r8
	.loc 1 168 21 discriminator 8 view .LVU1060
	movq	%r8, -56(%rsp)
	.loc 1 168 190 is_stmt 1 discriminator 8 view .LVU1061
	.loc 1 168 252 is_stmt 0 discriminator 8 view .LVU1062
	cmpq	$63, %rax
	ja	.L529
	.loc 1 168 252 discriminator 9 view .LVU1063
	movq	32(%rsi), %r8
	movl	%eax, %ecx
	salq	%cl, %r8
.L359:
	.loc 1 168 339 discriminator 12 view .LVU1064
	cmpq	$62, %r9
	ja	.L530
	.loc 1 168 339 discriminator 13 view .LVU1065
	movq	32(%rsi), %rbx
	movl	%edx, %ecx
	shrq	%cl, %rbx
	movq	%rbx, %rcx
.L360:
	.loc 1 168 289 discriminator 16 view .LVU1066
	addq	%rcx, %r8
	movq	$-64, %r10
	subq	%rdx, %r10
	.loc 1 168 430 discriminator 16 view .LVU1067
	cmpq	$63, %r10
	ja	.L531
	.loc 1 168 457 discriminator 17 view .LVU1068
	leal	-64(%rax), %ecx
	.loc 1 168 430 discriminator 17 view .LVU1069
	movq	40(%rsi), %r11
	salq	%cl, %r11
.L361:
	.loc 1 168 430 discriminator 17 view .LVU1070
	movq	%rdx, %r13
	notq	%r13
	.loc 1 168 516 discriminator 20 view .LVU1071
	cmpq	$62, %r13
	ja	.L532
	.loc 1 168 541 discriminator 21 view .LVU1072
	movl	$64, %ecx
	subl	%eax, %ecx
	.loc 1 168 516 discriminator 21 view .LVU1073
	movq	40(%rsi), %rbx
	shrq	%cl, %rbx
	movq	%rbx, %rcx
.L362:
	.loc 1 168 464 discriminator 24 view .LVU1074
	addq	%rcx, %r11
	.loc 1 168 378 discriminator 24 view .LVU1075
	orq	%r8, %r11
	.loc 1 168 202 discriminator 24 view .LVU1076
	movq	%r11, -64(%rsp)
	.loc 1 168 553 is_stmt 1 discriminator 24 view .LVU1077
	.loc 1 168 615 is_stmt 0 discriminator 24 view .LVU1078
	cmpq	$63, %rax
	ja	.L533
	.loc 1 168 615 discriminator 25 view .LVU1079
	movq	24(%rsi), %r11
	movl	%eax, %ecx
	salq	%cl, %r11
.L363:
	.loc 1 168 706 discriminator 28 view .LVU1080
	cmpq	$62, %r9
	ja	.L534
	.loc 1 168 706 discriminator 29 view .LVU1081
	movq	24(%rsi), %rbx
	movl	%edx, %ecx
	shrq	%cl, %rbx
	movq	%rbx, %rcx
.L364:
	.loc 1 168 656 discriminator 32 view .LVU1082
	addq	%rcx, %r11
	.loc 1 168 801 discriminator 32 view .LVU1083
	cmpq	$63, %r10
	ja	.L535
	.loc 1 168 832 discriminator 33 view .LVU1084
	leal	-64(%rax), %ecx
	.loc 1 168 801 discriminator 33 view .LVU1085
	movq	32(%rsi), %r8
	salq	%cl, %r8
.L365:
	.loc 1 168 891 discriminator 36 view .LVU1086
	cmpq	$62, %r13
	ja	.L536
	.loc 1 168 920 discriminator 37 view .LVU1087
	movl	$64, %ecx
	subl	%eax, %ecx
	.loc 1 168 891 discriminator 37 view .LVU1088
	movq	32(%rsi), %rbx
	shrq	%cl, %rbx
	movq	%rbx, %rcx
.L366:
	.loc 1 168 839 discriminator 40 view .LVU1089
	addq	%rcx, %r8
	.loc 1 168 749 discriminator 40 view .LVU1090
	orq	%r11, %r8
	movq	$-128, %rbx
	subq	%rdx, %rbx
	.loc 1 168 985 discriminator 40 view .LVU1091
	cmpq	$63, %rbx
	ja	.L537
	.loc 1 168 1012 discriminator 41 view .LVU1092
	leal	-128(%rax), %ecx
	.loc 1 168 985 discriminator 41 view .LVU1093
	movq	40(%rsi), %rbp
	salq	%cl, %rbp
.L367:
	.loc 1 168 985 discriminator 41 view .LVU1094
	movq	$-65, %r11
	subq	%rdx, %r11
	.loc 1 168 1074 discriminator 44 view .LVU1095
	cmpq	$62, %r11
	ja	.L538
	.loc 1 168 1100 discriminator 45 view .LVU1096
	movl	$128, %ecx
	subl	%eax, %ecx
	.loc 1 168 1074 discriminator 45 view .LVU1097
	movq	40(%rsi), %r15
	shrq	%cl, %r15
	movq	%r15, %rcx
.L368:
	.loc 1 168 1020 discriminator 48 view .LVU1098
	addq	%rbp, %rcx
	.loc 1 168 931 discriminator 48 view .LVU1099
	orq	%rcx, %r8
	.loc 1 168 565 discriminator 48 view .LVU1100
	movq	%r8, -72(%rsp)
	.loc 1 168 1112 is_stmt 1 discriminator 48 view .LVU1101
	.loc 1 168 1174 is_stmt 0 discriminator 48 view .LVU1102
	cmpq	$63, %rax
	ja	.L539
	.loc 1 168 1174 discriminator 49 view .LVU1103
	movq	16(%rsi), %r8
	movl	%eax, %ecx
	salq	%cl, %r8
.L369:
	.loc 1 168 1269 discriminator 52 view .LVU1104
	cmpq	$62, %r9
	ja	.L540
	.loc 1 168 1269 discriminator 53 view .LVU1105
	movq	16(%rsi), %r14
	movl	%edx, %ecx
	shrq	%cl, %r14
	movq	%r14, %rcx
.L370:
	.loc 1 168 1219 discriminator 56 view .LVU1106
	addq	%rcx, %r8
	.loc 1 168 1368 discriminator 56 view .LVU1107
	cmpq	$63, %r10
	ja	.L541
	.loc 1 168 1403 discriminator 57 view .LVU1108
	leal	-64(%rax), %ecx
	.loc 1 168 1368 discriminator 57 view .LVU1109
	movq	24(%rsi), %rbp
	salq	%cl, %rbp
.L371:
	.loc 1 168 1462 discriminator 60 view .LVU1110
	cmpq	$62, %r13
	ja	.L542
	.loc 1 168 1495 discriminator 61 view .LVU1111
	movl	$64, %ecx
	subl	%eax, %ecx
	.loc 1 168 1462 discriminator 61 view .LVU1112
	movq	24(%rsi), %r15
	shrq	%cl, %r15
	movq	%r15, %rcx
.L372:
	.loc 1 168 1410 discriminator 64 view .LVU1113
	addq	%rcx, %rbp
	.loc 1 168 1316 discriminator 64 view .LVU1114
	orq	%r8, %rbp
	.loc 1 168 1560 discriminator 64 view .LVU1115
	cmpq	$63, %rbx
	ja	.L543
	.loc 1 168 1591 discriminator 65 view .LVU1116
	leal	-128(%rax), %ecx
	.loc 1 168 1560 discriminator 65 view .LVU1117
	movq	32(%rsi), %r8
	salq	%cl, %r8
.L373:
	.loc 1 168 1653 discriminator 68 view .LVU1118
	cmpq	$62, %r11
	ja	.L544
	.loc 1 168 1683 discriminator 69 view .LVU1119
	movl	$128, %ecx
	subl	%eax, %ecx
	.loc 1 168 1653 discriminator 69 view .LVU1120
	movq	32(%rsi), %r14
	shrq	%cl, %r14
	movq	%r14, %rcx
.L374:
	.loc 1 168 1599 discriminator 72 view .LVU1121
	addq	%rcx, %r8
	.loc 1 168 1506 discriminator 72 view .LVU1122
	orq	%rbp, %r8
	movq	$-192, %r12
	subq	%rdx, %r12
	.loc 1 168 1748 discriminator 72 view .LVU1123
	cmpq	$63, %r12
	ja	.L545
	.loc 1 168 1775 discriminator 73 view .LVU1124
	leal	-192(%rax), %ecx
	.loc 1 168 1748 discriminator 73 view .LVU1125
	movq	40(%rsi), %r14
	salq	%cl, %r14
.L375:
	.loc 1 168 1748 discriminator 73 view .LVU1126
	movq	$-129, %rbp
	subq	%rdx, %rbp
	.loc 1 168 1837 discriminator 76 view .LVU1127
	cmpq	$62, %rbp
	ja	.L546
	.loc 1 168 1863 discriminator 77 view .LVU1128
	movl	$192, %ecx
	subl	%eax, %ecx
	.loc 1 168 1837 discriminator 77 view .LVU1129
	movq	40(%rsi), %r15
	shrq	%cl, %r15
	movq	%r15, %rcx
.L376:
	.loc 1 168 1783 discriminator 80 view .LVU1130
	addq	%r14, %rcx
	.loc 1 168 1694 discriminator 80 view .LVU1131
	orq	%rcx, %r8
	.loc 1 168 1124 discriminator 80 view .LVU1132
	movq	%r8, -80(%rsp)
	.loc 1 168 1875 is_stmt 1 discriminator 80 view .LVU1133
	.loc 1 168 1937 is_stmt 0 discriminator 80 view .LVU1134
	cmpq	$63, %rax
	ja	.L547
	.loc 1 168 1937 discriminator 81 view .LVU1135
	movq	8(%rsi), %r8
	movl	%eax, %ecx
	salq	%cl, %r8
.L377:
	.loc 1 168 2036 discriminator 84 view .LVU1136
	cmpq	$62, %r9
	ja	.L548
	.loc 1 168 2036 discriminator 85 view .LVU1137
	movq	8(%rsi), %r15
	movl	%edx, %ecx
	shrq	%cl, %r15
	movq	%r15, %rcx
.L378:
	.loc 1 168 1986 discriminator 88 view .LVU1138
	addq	%rcx, %r8
	.loc 1 168 2139 discriminator 88 view .LVU1139
	cmpq	$63, %r10
	ja	.L549
	.loc 1 168 2178 discriminator 89 view .LVU1140
	leal	-64(%rax), %ecx
	.loc 1 168 2139 discriminator 89 view .LVU1141
	movq	16(%rsi), %r14
	salq	%cl, %r14
.L379:
	.loc 1 168 2237 discriminator 92 view .LVU1142
	cmpq	$62, %r13
	ja	.L550
	.loc 1 168 2274 discriminator 93 view .LVU1143
	movl	$64, %ecx
	subl	%eax, %ecx
	.loc 1 168 2237 discriminator 93 view .LVU1144
	movq	16(%rsi), %r15
	shrq	%cl, %r15
	movq	%r15, %rcx
.L380:
	.loc 1 168 2185 discriminator 96 view .LVU1145
	addq	%r14, %rcx
	.loc 1 168 2087 discriminator 96 view .LVU1146
	orq	%rcx, %r8
	.loc 1 168 2339 discriminator 96 view .LVU1147
	cmpq	$63, %rbx
	ja	.L551
	.loc 1 168 2374 discriminator 97 view .LVU1148
	leal	-128(%rax), %ecx
	.loc 1 168 2339 discriminator 97 view .LVU1149
	movq	24(%rsi), %r14
	salq	%cl, %r14
.L381:
	.loc 1 168 2436 discriminator 100 view .LVU1150
	cmpq	$62, %r11
	ja	.L552
	.loc 1 168 2470 discriminator 101 view .LVU1151
	movl	$128, %ecx
	subl	%eax, %ecx
	.loc 1 168 2436 discriminator 101 view .LVU1152
	movq	24(%rsi), %r15
	shrq	%cl, %r15
	movq	%r15, %rcx
.L382:
	.loc 1 168 2382 discriminator 104 view .LVU1153
	addq	%r14, %rcx
	.loc 1 168 2285 discriminator 104 view .LVU1154
	orq	%rcx, %r8
	.loc 1 168 2535 discriminator 104 view .LVU1155
	cmpq	$63, %r12
	ja	.L553
	.loc 1 168 2566 discriminator 105 view .LVU1156
	leal	-192(%rax), %ecx
	.loc 1 168 2535 discriminator 105 view .LVU1157
	movq	32(%rsi), %r14
	salq	%cl, %r14
.L383:
	.loc 1 168 2628 discriminator 108 view .LVU1158
	cmpq	$62, %rbp
	ja	.L554
	.loc 1 168 2658 discriminator 109 view .LVU1159
	movl	$192, %ecx
	subl	%eax, %ecx
	.loc 1 168 2628 discriminator 109 view .LVU1160
	movq	32(%rsi), %r15
	shrq	%cl, %r15
	movq	%r15, %rcx
.L384:
	.loc 1 168 2574 discriminator 112 view .LVU1161
	addq	%r14, %rcx
	.loc 1 168 2481 discriminator 112 view .LVU1162
	orq	%rcx, %r8
	movq	%r8, -112(%rsp)
	movq	$-256, %r15
	subq	%rdx, %r15
	.loc 1 168 2723 discriminator 112 view .LVU1163
	cmpq	$63, %r15
	ja	.L555
	.loc 1 168 2723 discriminator 113 view .LVU1164
	movq	40(%rsi), %r14
	movl	%eax, %ecx
	salq	%cl, %r14
	movq	%r14, -104(%rsp)
.L385:
	.loc 1 168 2723 discriminator 113 view .LVU1165
	movq	$-193, %r14
	subq	%rdx, %r14
	.loc 1 168 2812 discriminator 116 view .LVU1166
	cmpq	$62, %r14
	ja	.L556
	.loc 1 168 2838 discriminator 117 view .LVU1167
	movl	$256, %ecx
	subl	%eax, %ecx
	.loc 1 168 2812 discriminator 117 view .LVU1168
	movq	40(%rsi), %r8
	shrq	%cl, %r8
	movq	%r8, %rcx
.L386:
	.loc 1 168 2758 discriminator 120 view .LVU1169
	addq	-104(%rsp), %rcx
	.loc 1 168 2669 discriminator 120 view .LVU1170
	movq	-112(%rsp), %r8
	orq	%rcx, %r8
	.loc 1 168 1887 discriminator 120 view .LVU1171
	movq	%r8, -88(%rsp)
	.loc 1 168 2850 is_stmt 1 discriminator 120 view .LVU1172
	.loc 1 168 2912 is_stmt 0 discriminator 120 view .LVU1173
	cmpq	$63, %rax
	ja	.L557
	.loc 1 168 2912 discriminator 121 view .LVU1174
	movq	(%rsi), %r8
	movl	%eax, %ecx
	salq	%cl, %r8
.L387:
	.loc 1 168 3011 discriminator 124 view .LVU1175
	cmpq	$62, %r9
	ja	.L558
	.loc 1 168 3011 discriminator 125 view .LVU1176
	movq	(%rsi), %r9
	movl	%edx, %ecx
	shrq	%cl, %r9
.L388:
	.loc 1 168 2961 discriminator 128 view .LVU1177
	addq	%r8, %r9
	.loc 1 168 3114 discriminator 128 view .LVU1178
	cmpq	$63, %r10
	ja	.L559
	.loc 1 168 3153 discriminator 129 view .LVU1179
	leal	-64(%rax), %ecx
	.loc 1 168 3114 discriminator 129 view .LVU1180
	movq	8(%rsi), %r8
	salq	%cl, %r8
.L389:
	.loc 1 168 3212 discriminator 132 view .LVU1181
	cmpq	$62, %r13
	ja	.L560
	.loc 1 168 3249 discriminator 133 view .LVU1182
	movl	$64, %ecx
	subl	%eax, %ecx
	.loc 1 168 3212 discriminator 133 view .LVU1183
	movq	8(%rsi), %r10
	shrq	%cl, %r10
	movq	%r10, %rcx
.L390:
	.loc 1 168 3160 discriminator 136 view .LVU1184
	addq	%rcx, %r8
	.loc 1 168 3062 discriminator 136 view .LVU1185
	orq	%r9, %r8
	.loc 1 168 3314 discriminator 136 view .LVU1186
	cmpq	$63, %rbx
	ja	.L561
	.loc 1 168 3349 discriminator 137 view .LVU1187
	leal	-128(%rax), %ecx
	.loc 1 168 3314 discriminator 137 view .LVU1188
	movq	16(%rsi), %r10
	salq	%cl, %r10
.L391:
	.loc 1 168 3411 discriminator 140 view .LVU1189
	cmpq	$62, %r11
	ja	.L562
	.loc 1 168 3445 discriminator 141 view .LVU1190
	movl	$128, %ecx
	subl	%eax, %ecx
	.loc 1 168 3411 discriminator 141 view .LVU1191
	movq	16(%rsi), %rbx
	shrq	%cl, %rbx
	movq	%rbx, %rcx
.L392:
	.loc 1 168 3357 discriminator 144 view .LVU1192
	addq	%rcx, %r10
	.loc 1 168 3260 discriminator 144 view .LVU1193
	orq	%r8, %r10
	.loc 1 168 3510 discriminator 144 view .LVU1194
	cmpq	$63, %r12
	ja	.L563
	.loc 1 168 3541 discriminator 145 view .LVU1195
	leal	-192(%rax), %ecx
	.loc 1 168 3510 discriminator 145 view .LVU1196
	movq	24(%rsi), %r9
	salq	%cl, %r9
.L393:
	.loc 1 168 3603 discriminator 148 view .LVU1197
	cmpq	$62, %rbp
	ja	.L564
	.loc 1 168 3633 discriminator 149 view .LVU1198
	movl	$192, %ecx
	subl	%eax, %ecx
	.loc 1 168 3603 discriminator 149 view .LVU1199
	movq	24(%rsi), %r8
	shrq	%cl, %r8
.L394:
	.loc 1 168 3549 discriminator 152 view .LVU1200
	addq	%r8, %r9
	.loc 1 168 3456 discriminator 152 view .LVU1201
	orq	%r9, %r10
	movq	%r10, %r8
	.loc 1 168 3698 discriminator 152 view .LVU1202
	cmpq	$63, %r15
	ja	.L565
	.loc 1 168 3698 discriminator 153 view .LVU1203
	movq	32(%rsi), %r9
	movl	%eax, %ecx
	salq	%cl, %r9
.L395:
	.loc 1 168 3787 discriminator 156 view .LVU1204
	cmpq	$62, %r14
	ja	.L566
	.loc 1 168 3813 discriminator 157 view .LVU1205
	movl	$256, %ecx
	subl	%eax, %ecx
	.loc 1 168 3787 discriminator 157 view .LVU1206
	movq	32(%rsi), %rbx
	shrq	%cl, %rbx
	movq	%rbx, %rcx
.L396:
	.loc 1 168 3733 discriminator 160 view .LVU1207
	addq	%rcx, %r9
	.loc 1 168 3644 discriminator 160 view .LVU1208
	orq	%r9, %r8
	.loc 1 168 3878 discriminator 160 view .LVU1209
	movq	$-320, %rcx
	subq	%rdx, %rcx
	cmpq	$63, %rcx
	ja	.L567
	.loc 1 168 3901 discriminator 161 view .LVU1210
	leal	-320(%rax), %ecx
	.loc 1 168 3878 discriminator 161 view .LVU1211
	movq	40(%rsi), %r9
	salq	%cl, %r9
.L397:
	.loc 1 168 3963 discriminator 164 view .LVU1212
	movq	$-257, %rcx
	subq	%rdx, %rcx
	cmpq	$62, %rcx
	ja	.L568
	.loc 1 168 3985 discriminator 165 view .LVU1213
	movl	$320, %ecx
	subl	%eax, %ecx
	.loc 1 168 3963 discriminator 165 view .LVU1214
	movq	40(%rsi), %rax
.LVL41:
	.loc 1 168 3963 discriminator 165 view .LVU1215
	shrq	%cl, %rax
.L398:
	.loc 1 168 3909 discriminator 168 view .LVU1216
	addq	%rax, %r9
	.loc 1 168 3824 discriminator 168 view .LVU1217
	orq	%r8, %r9
	.loc 1 168 2862 discriminator 168 view .LVU1218
	movq	%r9, -96(%rsp)
	.loc 1 168 3996 is_stmt 1 discriminator 168 view .LVU1219
	.loc 1 169 9 discriminator 168 view .LVU1220
	.loc 1 169 16 is_stmt 0 discriminator 168 view .LVU1221
	leaq	384(%rdx), %rax
.LVL42:
	.loc 1 170 9 is_stmt 1 discriminator 168 view .LVU1222
	.loc 1 170 71 is_stmt 0 discriminator 168 view .LVU1223
	cmpq	$63, %rax
	ja	.L569
	.loc 1 170 71 discriminator 1 view .LVU1224
	movq	(%rsi), %r8
	movl	%eax, %ecx
	shrq	%cl, %r8
.L399:
	.loc 1 170 108 discriminator 4 view .LVU1225
	leaq	447(%rdx), %r9
	.loc 1 170 156 discriminator 4 view .LVU1226
	cmpq	$62, %r9
	ja	.L570
	.loc 1 170 175 discriminator 5 view .LVU1227
	movl	%eax, %ecx
	negl	%ecx
	.loc 1 170 156 discriminator 5 view .LVU1228
	movq	(%rsi), %rbx
	salq	%cl, %rbx
	movq	%rbx, %rcx
.L400:
	.loc 1 170 106 discriminator 8 view .LVU1229
	addq	%rcx, %r8
	.loc 1 170 21 discriminator 8 view .LVU1230
	movq	%r8, -48(%rsp)
	.loc 1 170 194 is_stmt 1 discriminator 8 view .LVU1231
	.loc 1 170 256 is_stmt 0 discriminator 8 view .LVU1232
	cmpq	$63, %rax
	ja	.L571
	.loc 1 170 256 discriminator 9 view .LVU1233
	movq	8(%rsi), %r8
	movl	%eax, %ecx
	shrq	%cl, %r8
.L401:
	.loc 1 170 345 discriminator 12 view .LVU1234
	cmpq	$62, %r9
	ja	.L572
	.loc 1 170 368 discriminator 13 view .LVU1235
	movl	%eax, %ecx
	negl	%ecx
	.loc 1 170 345 discriminator 13 view .LVU1236
	movq	8(%rsi), %rbx
	salq	%cl, %rbx
	movq	%rbx, %rcx
.L402:
	.loc 1 170 295 discriminator 16 view .LVU1237
	addq	%rcx, %r8
	.loc 1 170 389 discriminator 16 view .LVU1238
	leaq	320(%rdx), %r11
	.loc 1 170 438 discriminator 16 view .LVU1239
	cmpq	$63, %r11
	ja	.L573
	.loc 1 170 467 discriminator 17 view .LVU1240
	leal	-64(%rax), %ecx
	.loc 1 170 438 discriminator 17 view .LVU1241
	movq	(%rsi), %rbx
	shrq	%cl, %rbx
.L403:
	.loc 1 170 476 discriminator 20 view .LVU1242
	leaq	383(%rdx), %r10
	.loc 1 170 526 discriminator 20 view .LVU1243
	cmpq	$62, %r10
	ja	.L574
	.loc 1 170 553 discriminator 21 view .LVU1244
	movl	$64, %ecx
	subl	%eax, %ecx
	.loc 1 170 526 discriminator 21 view .LVU1245
	movq	(%rsi), %r15
	salq	%cl, %r15
	movq	%r15, %rcx
.L404:
	.loc 1 170 474 discriminator 24 view .LVU1246
	addq	%rcx, %rbx
	.loc 1 170 386 discriminator 24 view .LVU1247
	orq	%rbx, %r8
	.loc 1 170 206 discriminator 24 view .LVU1248
	movq	%r8, -40(%rsp)
	.loc 1 170 565 is_stmt 1 discriminator 24 view .LVU1249
	.loc 1 170 627 is_stmt 0 discriminator 24 view .LVU1250
	cmpq	$63, %rax
	ja	.L575
	.loc 1 170 627 discriminator 25 view .LVU1251
	movq	16(%rsi), %r8
	movl	%eax, %ecx
	shrq	%cl, %r8
.L405:
	.loc 1 170 720 discriminator 28 view .LVU1252
	cmpq	$62, %r9
	ja	.L576
	.loc 1 170 747 discriminator 29 view .LVU1253
	movl	%eax, %ecx
	negl	%ecx
	.loc 1 170 720 discriminator 29 view .LVU1254
	movq	16(%rsi), %rbx
	salq	%cl, %rbx
	movq	%rbx, %rcx
.L406:
	.loc 1 170 670 discriminator 32 view .LVU1255
	addq	%rcx, %r8
	.loc 1 170 817 discriminator 32 view .LVU1256
	cmpq	$63, %r11
	ja	.L577
	.loc 1 170 850 discriminator 33 view .LVU1257
	leal	-64(%rax), %ecx
	.loc 1 170 817 discriminator 33 view .LVU1258
	movq	8(%rsi), %rbx
	shrq	%cl, %rbx
.L407:
	.loc 1 170 909 discriminator 36 view .LVU1259
	cmpq	$62, %r10
	ja	.L578
	.loc 1 170 940 discriminator 37 view .LVU1260
	movl	$64, %ecx
	subl	%eax, %ecx
	.loc 1 170 909 discriminator 37 view .LVU1261
	movq	8(%rsi), %r14
	salq	%cl, %r14
	movq	%r14, %rcx
.L408:
	.loc 1 170 857 discriminator 40 view .LVU1262
	addq	%rcx, %rbx
	.loc 1 170 765 discriminator 40 view .LVU1263
	orq	%rbx, %r8
	movq	%r8, %r12
	.loc 1 170 954 discriminator 40 view .LVU1264
	leaq	256(%rdx), %rbp
	.loc 1 170 1005 discriminator 40 view .LVU1265
	cmpq	$63, %rbp
	ja	.L579
	.loc 1 170 1034 discriminator 41 view .LVU1266
	leal	-128(%rax), %ecx
	.loc 1 170 1005 discriminator 41 view .LVU1267
	movq	(%rsi), %r8
	shrq	%cl, %r8
.L409:
	.loc 1 170 1044 discriminator 44 view .LVU1268
	leaq	319(%rdx), %rbx
	.loc 1 170 1096 discriminator 44 view .LVU1269
	cmpq	$62, %rbx
	ja	.L580
	.loc 1 170 1124 discriminator 45 view .LVU1270
	movl	$128, %ecx
	subl	%eax, %ecx
	.loc 1 170 1096 discriminator 45 view .LVU1271
	movq	(%rsi), %r15
	salq	%cl, %r15
	movq	%r15, %rcx
.L410:
	.loc 1 170 1042 discriminator 48 view .LVU1272
	addq	%rcx, %r8
	.loc 1 170 951 discriminator 48 view .LVU1273
	orq	%r12, %r8
	.loc 1 170 577 discriminator 48 view .LVU1274
	movq	%r8, -32(%rsp)
	.loc 1 170 1136 is_stmt 1 discriminator 48 view .LVU1275
	.loc 1 170 1198 is_stmt 0 discriminator 48 view .LVU1276
	cmpq	$63, %rax
	ja	.L581
	.loc 1 170 1198 discriminator 49 view .LVU1277
	movq	24(%rsi), %r8
	movl	%eax, %ecx
	shrq	%cl, %r8
.L411:
	.loc 1 170 1295 discriminator 52 view .LVU1278
	cmpq	$62, %r9
	ja	.L582
	.loc 1 170 1326 discriminator 53 view .LVU1279
	movl	%eax, %ecx
	negl	%ecx
	.loc 1 170 1295 discriminator 53 view .LVU1280
	movq	24(%rsi), %r14
	salq	%cl, %r14
	movq	%r14, %rcx
.L412:
	.loc 1 170 1245 discriminator 56 view .LVU1281
	addq	%rcx, %r8
	.loc 1 170 1396 discriminator 56 view .LVU1282
	cmpq	$63, %r11
	ja	.L583
	.loc 1 170 1433 discriminator 57 view .LVU1283
	leal	-64(%rax), %ecx
	.loc 1 170 1396 discriminator 57 view .LVU1284
	movq	16(%rsi), %r12
	shrq	%cl, %r12
.L413:
	.loc 1 170 1492 discriminator 60 view .LVU1285
	cmpq	$62, %r10
	ja	.L584
	.loc 1 170 1527 discriminator 61 view .LVU1286
	movl	$64, %ecx
	subl	%eax, %ecx
	.loc 1 170 1492 discriminator 61 view .LVU1287
	movq	16(%rsi), %r15
	salq	%cl, %r15
	movq	%r15, %rcx
.L414:
	.loc 1 170 1440 discriminator 64 view .LVU1288
	addq	%rcx, %r12
	.loc 1 170 1344 discriminator 64 view .LVU1289
	orq	%r8, %r12
	.loc 1 170 1592 discriminator 64 view .LVU1290
	cmpq	$63, %rbp
	ja	.L585
	.loc 1 170 1625 discriminator 65 view .LVU1291
	leal	-128(%rax), %ecx
	.loc 1 170 1592 discriminator 65 view .LVU1292
	movq	8(%rsi), %r8
	shrq	%cl, %r8
.L415:
	.loc 1 170 1687 discriminator 68 view .LVU1293
	cmpq	$62, %rbx
	ja	.L586
	.loc 1 170 1719 discriminator 69 view .LVU1294
	movl	$128, %ecx
	subl	%eax, %ecx
	.loc 1 170 1687 discriminator 69 view .LVU1295
	movq	8(%rsi), %r14
	salq	%cl, %r14
	movq	%r14, %rcx
.L416:
	.loc 1 170 1633 discriminator 72 view .LVU1296
	addq	%rcx, %r8
	.loc 1 170 1538 discriminator 72 view .LVU1297
	orq	%r12, %r8
	.loc 1 170 1733 discriminator 72 view .LVU1298
	leaq	192(%rdx), %r13
	.loc 1 170 1784 discriminator 72 view .LVU1299
	cmpq	$63, %r13
	ja	.L587
	.loc 1 170 1813 discriminator 73 view .LVU1300
	leal	-192(%rax), %ecx
	.loc 1 170 1784 discriminator 73 view .LVU1301
	movq	(%rsi), %r14
	shrq	%cl, %r14
.L417:
	.loc 1 170 1823 discriminator 76 view .LVU1302
	leaq	255(%rdx), %r12
	.loc 1 170 1875 discriminator 76 view .LVU1303
	cmpq	$62, %r12
	ja	.L588
	.loc 1 170 1903 discriminator 77 view .LVU1304
	movl	$192, %ecx
	subl	%eax, %ecx
	.loc 1 170 1875 discriminator 77 view .LVU1305
	movq	(%rsi), %r15
	salq	%cl, %r15
	movq	%r15, %rcx
.L418:
	.loc 1 170 1821 discriminator 80 view .LVU1306
	addq	%r14, %rcx
	.loc 1 170 1730 discriminator 80 view .LVU1307
	orq	%rcx, %r8
	.loc 1 170 1148 discriminator 80 view .LVU1308
	movq	%r8, -24(%rsp)
	.loc 1 170 1915 is_stmt 1 discriminator 80 view .LVU1309
	.loc 1 170 1977 is_stmt 0 discriminator 80 view .LVU1310
	cmpq	$63, %rax
	ja	.L589
	.loc 1 170 1977 discriminator 81 view .LVU1311
	movq	32(%rsi), %r8
	movl	%eax, %ecx
	shrq	%cl, %r8
.L419:
	.loc 1 170 2078 discriminator 84 view .LVU1312
	cmpq	$62, %r9
	ja	.L590
	.loc 1 170 2113 discriminator 85 view .LVU1313
	movl	%eax, %ecx
	negl	%ecx
	.loc 1 170 2078 discriminator 85 view .LVU1314
	movq	32(%rsi), %r15
	salq	%cl, %r15
	movq	%r15, %rcx
.L420:
	.loc 1 170 2028 discriminator 88 view .LVU1315
	addq	%rcx, %r8
	.loc 1 170 2183 discriminator 88 view .LVU1316
	cmpq	$63, %r11
	ja	.L591
	.loc 1 170 2224 discriminator 89 view .LVU1317
	leal	-64(%rax), %ecx
	.loc 1 170 2183 discriminator 89 view .LVU1318
	movq	24(%rsi), %r14
	shrq	%cl, %r14
.L421:
	.loc 1 170 2283 discriminator 92 view .LVU1319
	cmpq	$62, %r10
	ja	.L592
	.loc 1 170 2322 discriminator 93 view .LVU1320
	movl	$64, %ecx
	subl	%eax, %ecx
	.loc 1 170 2283 discriminator 93 view .LVU1321
	movq	24(%rsi), %r15
	salq	%cl, %r15
	movq	%r15, %rcx
.L422:
	.loc 1 170 2231 discriminator 96 view .LVU1322
	addq	%r14, %rcx
	.loc 1 170 2131 discriminator 96 view .LVU1323
	orq	%rcx, %r8
	.loc 1 170 2387 discriminator 96 view .LVU1324
	cmpq	$63, %rbp
	ja	.L593
	.loc 1 170 2424 discriminator 97 view .LVU1325
	leal	-128(%rax), %ecx
	.loc 1 170 2387 discriminator 97 view .LVU1326
	movq	16(%rsi), %r14
	shrq	%cl, %r14
.L423:
	.loc 1 170 2486 discriminator 100 view .LVU1327
	cmpq	$62, %rbx
	ja	.L594
	.loc 1 170 2522 discriminator 101 view .LVU1328
	movl	$128, %ecx
	subl	%eax, %ecx
	.loc 1 170 2486 discriminator 101 view .LVU1329
	movq	16(%rsi), %r15
	salq	%cl, %r15
	movq	%r15, %rcx
.L424:
	.loc 1 170 2432 discriminator 104 view .LVU1330
	addq	%r14, %rcx
	.loc 1 170 2333 discriminator 104 view .LVU1331
	orq	%rcx, %r8
	.loc 1 170 2587 discriminator 104 view .LVU1332
	cmpq	$63, %r13
	ja	.L595
	.loc 1 170 2620 discriminator 105 view .LVU1333
	leal	-192(%rax), %ecx
	.loc 1 170 2587 discriminator 105 view .LVU1334
	movq	8(%rsi), %r14
	shrq	%cl, %r14
.L425:
	.loc 1 170 2682 discriminator 108 view .LVU1335
	cmpq	$62, %r12
	ja	.L596
	.loc 1 170 2714 discriminator 109 view .LVU1336
	movl	$192, %ecx
	subl	%eax, %ecx
	.loc 1 170 2682 discriminator 109 view .LVU1337
	movq	8(%rsi), %r15
	salq	%cl, %r15
	movq	%r15, %rcx
.L426:
	.loc 1 170 2628 discriminator 112 view .LVU1338
	addq	%r14, %rcx
	.loc 1 170 2533 discriminator 112 view .LVU1339
	orq	%rcx, %r8
	movq	%r8, -112(%rsp)
	.loc 1 170 2728 discriminator 112 view .LVU1340
	leaq	128(%rdx), %r15
	.loc 1 170 2779 discriminator 112 view .LVU1341
	cmpq	$63, %r15
	ja	.L597
	.loc 1 170 2779 discriminator 113 view .LVU1342
	movq	(%rsi), %r14
	movl	%eax, %ecx
	shrq	%cl, %r14
	movq	%r14, -104(%rsp)
.L427:
	.loc 1 170 2818 discriminator 116 view .LVU1343
	leaq	191(%rdx), %r14
	.loc 1 170 2870 discriminator 116 view .LVU1344
	cmpq	$62, %r14
	ja	.L598
	.loc 1 170 2898 discriminator 117 view .LVU1345
	movl	$256, %ecx
	subl	%eax, %ecx
	.loc 1 170 2870 discriminator 117 view .LVU1346
	movq	(%rsi), %r8
	salq	%cl, %r8
	movq	%r8, %rcx
.L428:
	.loc 1 170 2816 discriminator 120 view .LVU1347
	addq	-104(%rsp), %rcx
	.loc 1 170 2725 discriminator 120 view .LVU1348
	movq	-112(%rsp), %r8
	orq	%rcx, %r8
	.loc 1 170 1927 discriminator 120 view .LVU1349
	movq	%r8, -16(%rsp)
	.loc 1 170 2910 is_stmt 1 discriminator 120 view .LVU1350
	.loc 1 170 2972 is_stmt 0 discriminator 120 view .LVU1351
	cmpq	$63, %rax
	ja	.L599
	.loc 1 170 2972 discriminator 121 view .LVU1352
	movq	40(%rsi), %r8
	movl	%eax, %ecx
	shrq	%cl, %r8
.L429:
	.loc 1 170 3073 discriminator 124 view .LVU1353
	cmpq	$62, %r9
	ja	.L600
	.loc 1 170 3108 discriminator 125 view .LVU1354
	movl	%eax, %ecx
	negl	%ecx
	.loc 1 170 3073 discriminator 125 view .LVU1355
	movq	40(%rsi), %r9
	salq	%cl, %r9
.L430:
	.loc 1 170 3023 discriminator 128 view .LVU1356
	addq	%r8, %r9
	.loc 1 170 3178 discriminator 128 view .LVU1357
	cmpq	$63, %r11
	ja	.L601
	.loc 1 170 3219 discriminator 129 view .LVU1358
	leal	-64(%rax), %ecx
	.loc 1 170 3178 discriminator 129 view .LVU1359
	movq	32(%rsi), %r8
	shrq	%cl, %r8
.L431:
	.loc 1 170 3278 discriminator 132 view .LVU1360
	cmpq	$62, %r10
	ja	.L602
	.loc 1 170 3317 discriminator 133 view .LVU1361
	movl	$64, %ecx
	subl	%eax, %ecx
	.loc 1 170 3278 discriminator 133 view .LVU1362
	movq	32(%rsi), %r10
	salq	%cl, %r10
	movq	%r10, %rcx
.L432:
	.loc 1 170 3226 discriminator 136 view .LVU1363
	addq	%rcx, %r8
	.loc 1 170 3126 discriminator 136 view .LVU1364
	movq	%r9, %r10
	orq	%r8, %r10
	.loc 1 170 3382 discriminator 136 view .LVU1365
	cmpq	$63, %rbp
	ja	.L603
	.loc 1 170 3419 discriminator 137 view .LVU1366
	leal	-128(%rax), %ecx
	.loc 1 170 3382 discriminator 137 view .LVU1367
	movq	24(%rsi), %r9
	shrq	%cl, %r9
.L433:
	.loc 1 170 3481 discriminator 140 view .LVU1368
	cmpq	$62, %rbx
	ja	.L604
	.loc 1 170 3517 discriminator 141 view .LVU1369
	movl	$128, %ecx
	subl	%eax, %ecx
	.loc 1 170 3481 discriminator 141 view .LVU1370
	movq	24(%rsi), %r8
	salq	%cl, %r8
.L434:
	.loc 1 170 3427 discriminator 144 view .LVU1371
	addq	%r9, %r8
	.loc 1 170 3328 discriminator 144 view .LVU1372
	orq	%r10, %r8
	.loc 1 170 3582 discriminator 144 view .LVU1373
	cmpq	$63, %r13
	ja	.L605
	.loc 1 170 3615 discriminator 145 view .LVU1374
	leal	-192(%rax), %ecx
	.loc 1 170 3582 discriminator 145 view .LVU1375
	movq	16(%rsi), %r9
	shrq	%cl, %r9
.L435:
	.loc 1 170 3677 discriminator 148 view .LVU1376
	cmpq	$62, %r12
	ja	.L606
	.loc 1 170 3709 discriminator 149 view .LVU1377
	movl	$192, %ecx
	subl	%eax, %ecx
	.loc 1 170 3677 discriminator 149 view .LVU1378
	movq	16(%rsi), %rbx
	salq	%cl, %rbx
	movq	%rbx, %rcx
.L436:
	.loc 1 170 3623 discriminator 152 view .LVU1379
	addq	%rcx, %r9
	.loc 1 170 3528 discriminator 152 view .LVU1380
	orq	%r9, %r8
	.loc 1 170 3774 discriminator 152 view .LVU1381
	cmpq	$63, %r15
	ja	.L607
	.loc 1 170 3774 discriminator 153 view .LVU1382
	movq	8(%rsi), %r9
	movl	%eax, %ecx
	shrq	%cl, %r9
.L437:
	.loc 1 170 3865 discriminator 156 view .LVU1383
	cmpq	$62, %r14
	ja	.L608
	.loc 1 170 3893 discriminator 157 view .LVU1384
	movl	$256, %ecx
	subl	%eax, %ecx
	.loc 1 170 3865 discriminator 157 view .LVU1385
	movq	8(%rsi), %rbx
	salq	%cl, %rbx
	movq	%rbx, %rcx
.L438:
	.loc 1 170 3811 discriminator 160 view .LVU1386
	addq	%rcx, %r9
	.loc 1 170 3720 discriminator 160 view .LVU1387
	orq	%r9, %r8
	.loc 1 170 3958 discriminator 160 view .LVU1388
	cmpq	$-64, %rdx
	jb	.L609
	.loc 1 170 3983 discriminator 161 view .LVU1389
	leal	-320(%rax), %ecx
	.loc 1 170 3958 discriminator 161 view .LVU1390
	movq	(%rsi), %r9
	shrq	%cl, %r9
.L439:
	.loc 1 170 3993 discriminator 164 view .LVU1391
	addq	$127, %rdx
	.loc 1 170 4045 discriminator 164 view .LVU1392
	cmpq	$62, %rdx
	ja	.L610
	.loc 1 170 4053 discriminator 165 view .LVU1393
	movq	(%rsi), %rdx
	.loc 1 170 4069 discriminator 165 view .LVU1394
	movl	$320, %ecx
	subl	%eax, %ecx
	.loc 1 170 4045 discriminator 165 view .LVU1395
	movq	%rdx, %rax
.LVL43:
	.loc 1 170 4045 discriminator 165 view .LVU1396
	salq	%cl, %rax
.L440:
	.loc 1 170 3991 discriminator 168 view .LVU1397
	addq	%rax, %r9
	.loc 1 170 3904 discriminator 168 view .LVU1398
	orq	%r9, %r8
	.loc 1 170 2922 discriminator 168 view .LVU1399
	movq	%r8, -8(%rsp)
	.loc 1 170 4080 is_stmt 1 discriminator 168 view .LVU1400
	jmp	.L441
.LVL44:
.L527:
	.loc 1 168 71 is_stmt 0 view .LVU1401
	movl	$0, %r8d
	jmp	.L357
.L528:
	.loc 1 168 154 view .LVU1402
	movl	$0, %ecx
	jmp	.L358
.L529:
	.loc 1 168 252 view .LVU1403
	movl	$0, %r8d
	jmp	.L359
.L530:
	.loc 1 168 339 view .LVU1404
	movl	$0, %ecx
	jmp	.L360
.L531:
	.loc 1 168 430 view .LVU1405
	movl	$0, %r11d
	jmp	.L361
.L532:
	.loc 1 168 516 view .LVU1406
	movl	$0, %ecx
	jmp	.L362
.L533:
	.loc 1 168 615 view .LVU1407
	movl	$0, %r11d
	jmp	.L363
.L534:
	.loc 1 168 706 view .LVU1408
	movl	$0, %ecx
	jmp	.L364
.L535:
	.loc 1 168 801 view .LVU1409
	movl	$0, %r8d
	jmp	.L365
.L536:
	.loc 1 168 891 view .LVU1410
	movl	$0, %ecx
	jmp	.L366
.L537:
	.loc 1 168 985 view .LVU1411
	movl	$0, %ebp
	jmp	.L367
.L538:
	.loc 1 168 1074 view .LVU1412
	movl	$0, %ecx
	jmp	.L368
.L539:
	.loc 1 168 1174 view .LVU1413
	movl	$0, %r8d
	jmp	.L369
.L540:
	.loc 1 168 1269 view .LVU1414
	movl	$0, %ecx
	jmp	.L370
.L541:
	.loc 1 168 1368 view .LVU1415
	movl	$0, %ebp
	jmp	.L371
.L542:
	.loc 1 168 1462 view .LVU1416
	movl	$0, %ecx
	jmp	.L372
.L543:
	.loc 1 168 1560 view .LVU1417
	movl	$0, %r8d
	jmp	.L373
.L544:
	.loc 1 168 1653 view .LVU1418
	movl	$0, %ecx
	jmp	.L374
.L545:
	.loc 1 168 1748 view .LVU1419
	movl	$0, %r14d
	jmp	.L375
.L546:
	.loc 1 168 1837 view .LVU1420
	movl	$0, %ecx
	jmp	.L376
.L547:
	.loc 1 168 1937 view .LVU1421
	movl	$0, %r8d
	jmp	.L377
.L548:
	.loc 1 168 2036 view .LVU1422
	movl	$0, %ecx
	jmp	.L378
.L549:
	.loc 1 168 2139 view .LVU1423
	movl	$0, %r14d
	jmp	.L379
.L550:
	.loc 1 168 2237 view .LVU1424
	movl	$0, %ecx
	jmp	.L380
.L551:
	.loc 1 168 2339 view .LVU1425
	movl	$0, %r14d
	jmp	.L381
.L552:
	.loc 1 168 2436 view .LVU1426
	movl	$0, %ecx
	jmp	.L382
.L553:
	.loc 1 168 2535 view .LVU1427
	movl	$0, %r14d
	jmp	.L383
.L554:
	.loc 1 168 2628 view .LVU1428
	movl	$0, %ecx
	jmp	.L384
.L555:
	.loc 1 168 2723 view .LVU1429
	movq	$0, -104(%rsp)
	jmp	.L385
.L556:
	.loc 1 168 2812 view .LVU1430
	movl	$0, %ecx
	jmp	.L386
.L557:
	.loc 1 168 2912 view .LVU1431
	movl	$0, %r8d
	jmp	.L387
.L558:
	.loc 1 168 3011 view .LVU1432
	movl	$0, %r9d
	jmp	.L388
.L559:
	.loc 1 168 3114 view .LVU1433
	movl	$0, %r8d
	jmp	.L389
.L560:
	.loc 1 168 3212 view .LVU1434
	movl	$0, %ecx
	jmp	.L390
.L561:
	.loc 1 168 3314 view .LVU1435
	movl	$0, %r10d
	jmp	.L391
.L562:
	.loc 1 168 3411 view .LVU1436
	movl	$0, %ecx
	jmp	.L392
.L563:
	.loc 1 168 3510 view .LVU1437
	movl	$0, %r9d
	jmp	.L393
.L564:
	.loc 1 168 3603 view .LVU1438
	movl	$0, %r8d
	jmp	.L394
.L565:
	.loc 1 168 3698 view .LVU1439
	movl	$0, %r9d
	jmp	.L395
.L566:
	.loc 1 168 3787 view .LVU1440
	movl	$0, %ecx
	jmp	.L396
.L567:
	.loc 1 168 3878 view .LVU1441
	movl	$0, %r9d
	jmp	.L397
.L568:
	.loc 1 168 3963 view .LVU1442
	movl	$0, %eax
.LVL45:
	.loc 1 168 3963 view .LVU1443
	jmp	.L398
.LVL46:
.L569:
	.loc 1 170 71 view .LVU1444
	movl	$0, %r8d
	jmp	.L399
.L570:
	.loc 1 170 156 view .LVU1445
	movl	$0, %ecx
	jmp	.L400
.L571:
	.loc 1 170 256 view .LVU1446
	movl	$0, %r8d
	jmp	.L401
.L572:
	.loc 1 170 345 view .LVU1447
	movl	$0, %ecx
	jmp	.L402
.L573:
	.loc 1 170 438 view .LVU1448
	movl	$0, %ebx
	jmp	.L403
.L574:
	.loc 1 170 526 view .LVU1449
	movl	$0, %ecx
	jmp	.L404
.L575:
	.loc 1 170 627 view .LVU1450
	movl	$0, %r8d
	jmp	.L405
.L576:
	.loc 1 170 720 view .LVU1451
	movl	$0, %ecx
	jmp	.L406
.L577:
	.loc 1 170 817 view .LVU1452
	movl	$0, %ebx
	jmp	.L407
.L578:
	.loc 1 170 909 view .LVU1453
	movl	$0, %ecx
	jmp	.L408
.L579:
	.loc 1 170 1005 view .LVU1454
	movl	$0, %r8d
	jmp	.L409
.L580:
	.loc 1 170 1096 view .LVU1455
	movl	$0, %ecx
	jmp	.L410
.L581:
	.loc 1 170 1198 view .LVU1456
	movl	$0, %r8d
	jmp	.L411
.L582:
	.loc 1 170 1295 view .LVU1457
	movl	$0, %ecx
	jmp	.L412
.L583:
	.loc 1 170 1396 view .LVU1458
	movl	$0, %r12d
	jmp	.L413
.L584:
	.loc 1 170 1492 view .LVU1459
	movl	$0, %ecx
	jmp	.L414
.L585:
	.loc 1 170 1592 view .LVU1460
	movl	$0, %r8d
	jmp	.L415
.L586:
	.loc 1 170 1687 view .LVU1461
	movl	$0, %ecx
	jmp	.L416
.L587:
	.loc 1 170 1784 view .LVU1462
	movl	$0, %r14d
	jmp	.L417
.L588:
	.loc 1 170 1875 view .LVU1463
	movl	$0, %ecx
	jmp	.L418
.L589:
	.loc 1 170 1977 view .LVU1464
	movl	$0, %r8d
	jmp	.L419
.L590:
	.loc 1 170 2078 view .LVU1465
	movl	$0, %ecx
	jmp	.L420
.L591:
	.loc 1 170 2183 view .LVU1466
	movl	$0, %r14d
	jmp	.L421
.L592:
	.loc 1 170 2283 view .LVU1467
	movl	$0, %ecx
	jmp	.L422
.L593:
	.loc 1 170 2387 view .LVU1468
	movl	$0, %r14d
	jmp	.L423
.L594:
	.loc 1 170 2486 view .LVU1469
	movl	$0, %ecx
	jmp	.L424
.L595:
	.loc 1 170 2587 view .LVU1470
	movl	$0, %r14d
	jmp	.L425
.L596:
	.loc 1 170 2682 view .LVU1471
	movl	$0, %ecx
	jmp	.L426
.L597:
	.loc 1 170 2779 view .LVU1472
	movq	$0, -104(%rsp)
	jmp	.L427
.L598:
	.loc 1 170 2870 view .LVU1473
	movl	$0, %ecx
	jmp	.L428
.L599:
	.loc 1 170 2972 view .LVU1474
	movl	$0, %r8d
	jmp	.L429
.L600:
	.loc 1 170 3073 view .LVU1475
	movl	$0, %r9d
	jmp	.L430
.L601:
	.loc 1 170 3178 view .LVU1476
	movl	$0, %r8d
	jmp	.L431
.L602:
	.loc 1 170 3278 view .LVU1477
	movl	$0, %ecx
	jmp	.L432
.L603:
	.loc 1 170 3382 view .LVU1478
	movl	$0, %r9d
	jmp	.L433
.L604:
	.loc 1 170 3481 view .LVU1479
	movl	$0, %r8d
	jmp	.L434
.L605:
	.loc 1 170 3582 view .LVU1480
	movl	$0, %r9d
	jmp	.L435
.L606:
	.loc 1 170 3677 view .LVU1481
	movl	$0, %ecx
	jmp	.L436
.L607:
	.loc 1 170 3774 view .LVU1482
	movl	$0, %r9d
	jmp	.L437
.L608:
	.loc 1 170 3865 view .LVU1483
	movl	$0, %ecx
	jmp	.L438
.L609:
	.loc 1 170 3958 view .LVU1484
	movl	$0, %r9d
	jmp	.L439
.L610:
	.loc 1 170 4045 view .LVU1485
	movl	$0, %eax
.LVL47:
	.loc 1 170 4045 view .LVU1486
	jmp	.L440
.LVL48:
.L611:
	.loc 1 174 71 view .LVU1487
	movl	$0, %eax
.L442:
	.loc 1 174 108 discriminator 4 view .LVU1488
	leaq	63(%rdx), %r10
	.loc 1 174 156 discriminator 4 view .LVU1489
	cmpq	$-63, %rdx
	jb	.L612
	.loc 1 174 175 discriminator 5 view .LVU1490
	movl	%edx, %ecx
	negl	%ecx
	.loc 1 174 156 discriminator 5 view .LVU1491
	movq	(%rsi), %rbx
	salq	%cl, %rbx
	movq	%rbx, %rcx
	jmp	.L443
.L612:
	.loc 1 174 156 view .LVU1492
	movl	$0, %ecx
.L443:
	.loc 1 174 106 discriminator 8 view .LVU1493
	addq	%rcx, %rax
	.loc 1 174 21 discriminator 8 view .LVU1494
	movq	%rax, -48(%rsp)
	.loc 1 174 194 is_stmt 1 discriminator 8 view .LVU1495
	.loc 1 174 256 is_stmt 0 discriminator 8 view .LVU1496
	cmpq	$63, %rdx
	ja	.L613
	.loc 1 174 256 discriminator 9 view .LVU1497
	movq	8(%rsi), %rax
	movl	%edx, %ecx
	shrq	%cl, %rax
	jmp	.L444
.L613:
	.loc 1 174 256 view .LVU1498
	movl	$0, %eax
.L444:
	.loc 1 174 345 discriminator 12 view .LVU1499
	cmpq	$62, %r10
	ja	.L614
	.loc 1 174 368 discriminator 13 view .LVU1500
	movl	%edx, %ecx
	negl	%ecx
	.loc 1 174 345 discriminator 13 view .LVU1501
	movq	8(%rsi), %rbx
	salq	%cl, %rbx
	movq	%rbx, %rcx
	jmp	.L445
.L614:
	.loc 1 174 345 view .LVU1502
	movl	$0, %ecx
.L445:
	.loc 1 174 295 discriminator 16 view .LVU1503
	addq	%rcx, %rax
	.loc 1 174 389 discriminator 16 view .LVU1504
	leaq	-64(%rdx), %r9
	.loc 1 174 438 discriminator 16 view .LVU1505
	cmpq	$63, %r9
	ja	.L615
	.loc 1 174 467 discriminator 17 view .LVU1506
	leal	-64(%rdx), %ecx
	.loc 1 174 438 discriminator 17 view .LVU1507
	movq	(%rsi), %r11
	shrq	%cl, %r11
	jmp	.L446
.L615:
	.loc 1 174 438 view .LVU1508
	movl	$0, %r11d
.L446:
	.loc 1 174 476 discriminator 20 view .LVU1509
	leaq	-1(%rdx), %r8
	.loc 1 174 526 discriminator 20 view .LVU1510
	cmpq	$62, %r8
	ja	.L616
	.loc 1 174 553 discriminator 21 view .LVU1511
	movl	$64, %ecx
	subl	%edx, %ecx
	.loc 1 174 526 discriminator 21 view .LVU1512
	movq	(%rsi), %rbx
	salq	%cl, %rbx
	movq	%rbx, %rcx
	jmp	.L447
.L616:
	.loc 1 174 526 view .LVU1513
	movl	$0, %ecx
.L447:
	.loc 1 174 474 discriminator 24 view .LVU1514
	addq	%rcx, %r11
	.loc 1 174 386 discriminator 24 view .LVU1515
	orq	%r11, %rax
	.loc 1 174 206 discriminator 24 view .LVU1516
	movq	%rax, -40(%rsp)
	.loc 1 174 565 is_stmt 1 discriminator 24 view .LVU1517
	.loc 1 174 627 is_stmt 0 discriminator 24 view .LVU1518
	cmpq	$63, %rdx
	ja	.L617
	.loc 1 174 627 discriminator 25 view .LVU1519
	movq	16(%rsi), %rax
	movl	%edx, %ecx
	shrq	%cl, %rax
	jmp	.L448
.L617:
	.loc 1 174 627 view .LVU1520
	movl	$0, %eax
.L448:
	.loc 1 174 720 discriminator 28 view .LVU1521
	cmpq	$62, %r10
	ja	.L618
	.loc 1 174 747 discriminator 29 view .LVU1522
	movl	%edx, %ecx
	negl	%ecx
	.loc 1 174 720 discriminator 29 view .LVU1523
	movq	16(%rsi), %rbx
	salq	%cl, %rbx
	movq	%rbx, %rcx
	jmp	.L449
.L618:
	.loc 1 174 720 view .LVU1524
	movl	$0, %ecx
.L449:
	.loc 1 174 670 discriminator 32 view .LVU1525
	addq	%rcx, %rax
	.loc 1 174 817 discriminator 32 view .LVU1526
	cmpq	$63, %r9
	ja	.L619
	.loc 1 174 850 discriminator 33 view .LVU1527
	leal	-64(%rdx), %ecx
	.loc 1 174 817 discriminator 33 view .LVU1528
	movq	8(%rsi), %r11
	shrq	%cl, %r11
	jmp	.L450
.L619:
	.loc 1 174 817 view .LVU1529
	movl	$0, %r11d
.L450:
	.loc 1 174 909 discriminator 36 view .LVU1530
	cmpq	$62, %r8
	ja	.L620
	.loc 1 174 940 discriminator 37 view .LVU1531
	movl	$64, %ecx
	subl	%edx, %ecx
	.loc 1 174 909 discriminator 37 view .LVU1532
	movq	8(%rsi), %rbx
	salq	%cl, %rbx
	movq	%rbx, %rcx
	jmp	.L451
.L620:
	.loc 1 174 909 view .LVU1533
	movl	$0, %ecx
.L451:
	.loc 1 174 857 discriminator 40 view .LVU1534
	addq	%rcx, %r11
	.loc 1 174 765 discriminator 40 view .LVU1535
	orq	%rax, %r11
	.loc 1 174 954 discriminator 40 view .LVU1536
	leaq	-128(%rdx), %r14
	.loc 1 174 1005 discriminator 40 view .LVU1537
	cmpq	$63, %r14
	ja	.L621
	.loc 1 174 1034 discriminator 41 view .LVU1538
	leal	-128(%rdx), %ecx
	.loc 1 174 1005 discriminator 41 view .LVU1539
	movq	(%rsi), %rax
	shrq	%cl, %rax
	jmp	.L452
.L621:
	.loc 1 174 1005 view .LVU1540
	movl	$0, %eax
.L452:
	.loc 1 174 1044 discriminator 44 view .LVU1541
	leaq	-65(%rdx), %r13
	.loc 1 174 1096 discriminator 44 view .LVU1542
	cmpq	$62, %r13
	ja	.L622
	.loc 1 174 1124 discriminator 45 view .LVU1543
	movl	$128, %ecx
	subl	%edx, %ecx
	.loc 1 174 1096 discriminator 45 view .LVU1544
	movq	(%rsi), %rbx
	salq	%cl, %rbx
	movq	%rbx, %rcx
	jmp	.L453
.L622:
	.loc 1 174 1096 view .LVU1545
	movl	$0, %ecx
.L453:
	.loc 1 174 1042 discriminator 48 view .LVU1546
	addq	%rcx, %rax
	.loc 1 174 951 discriminator 48 view .LVU1547
	orq	%r11, %rax
	.loc 1 174 577 discriminator 48 view .LVU1548
	movq	%rax, -32(%rsp)
	.loc 1 174 1136 is_stmt 1 discriminator 48 view .LVU1549
	.loc 1 174 1198 is_stmt 0 discriminator 48 view .LVU1550
	cmpq	$63, %rdx
	ja	.L623
	.loc 1 174 1198 discriminator 49 view .LVU1551
	movq	24(%rsi), %r11
	movl	%edx, %ecx
	shrq	%cl, %r11
	jmp	.L454
.L623:
	.loc 1 174 1198 view .LVU1552
	movl	$0, %r11d
.L454:
	.loc 1 174 1295 discriminator 52 view .LVU1553
	cmpq	$62, %r10
	ja	.L624
	.loc 1 174 1326 discriminator 53 view .LVU1554
	movl	%edx, %ecx
	negl	%ecx
	.loc 1 174 1295 discriminator 53 view .LVU1555
	movq	24(%rsi), %rax
	salq	%cl, %rax
	jmp	.L455
.L624:
	.loc 1 174 1295 view .LVU1556
	movl	$0, %eax
.L455:
	.loc 1 174 1245 discriminator 56 view .LVU1557
	addq	%r11, %rax
	.loc 1 174 1396 discriminator 56 view .LVU1558
	cmpq	$63, %r9
	ja	.L625
	.loc 1 174 1433 discriminator 57 view .LVU1559
	leal	-64(%rdx), %ecx
	.loc 1 174 1396 discriminator 57 view .LVU1560
	movq	16(%rsi), %r11
	shrq	%cl, %r11
	jmp	.L456
.L625:
	.loc 1 174 1396 view .LVU1561
	movl	$0, %r11d
.L456:
	.loc 1 174 1492 discriminator 60 view .LVU1562
	cmpq	$62, %r8
	ja	.L626
	.loc 1 174 1527 discriminator 61 view .LVU1563
	movl	$64, %ecx
	subl	%edx, %ecx
	.loc 1 174 1492 discriminator 61 view .LVU1564
	movq	16(%rsi), %rbx
	salq	%cl, %rbx
	movq	%rbx, %rcx
	jmp	.L457
.L626:
	.loc 1 174 1492 view .LVU1565
	movl	$0, %ecx
.L457:
	.loc 1 174 1440 discriminator 64 view .LVU1566
	addq	%rcx, %r11
	.loc 1 174 1344 discriminator 64 view .LVU1567
	orq	%r11, %rax
	.loc 1 174 1592 discriminator 64 view .LVU1568
	cmpq	$63, %r14
	ja	.L627
	.loc 1 174 1625 discriminator 65 view .LVU1569
	leal	-128(%rdx), %ecx
	.loc 1 174 1592 discriminator 65 view .LVU1570
	movq	8(%rsi), %r11
	shrq	%cl, %r11
	jmp	.L458
.L627:
	.loc 1 174 1592 view .LVU1571
	movl	$0, %r11d
.L458:
	.loc 1 174 1687 discriminator 68 view .LVU1572
	cmpq	$62, %r13
	ja	.L628
	.loc 1 174 1719 discriminator 69 view .LVU1573
	movl	$128, %ecx
	subl	%edx, %ecx
	.loc 1 174 1687 discriminator 69 view .LVU1574
	movq	8(%rsi), %rbx
	salq	%cl, %rbx
	movq	%rbx, %rcx
	jmp	.L459
.L628:
	.loc 1 174 1687 view .LVU1575
	movl	$0, %ecx
.L459:
	.loc 1 174 1633 discriminator 72 view .LVU1576
	addq	%rcx, %r11
	.loc 1 174 1538 discriminator 72 view .LVU1577
	orq	%r11, %rax
	.loc 1 174 1733 discriminator 72 view .LVU1578
	leaq	-192(%rdx), %r12
	.loc 1 174 1784 discriminator 72 view .LVU1579
	cmpq	$63, %r12
	ja	.L629
	.loc 1 174 1813 discriminator 73 view .LVU1580
	leal	-192(%rdx), %ecx
	.loc 1 174 1784 discriminator 73 view .LVU1581
	movq	(%rsi), %r11
	shrq	%cl, %r11
	jmp	.L460
.L629:
	.loc 1 174 1784 view .LVU1582
	movl	$0, %r11d
.L460:
	.loc 1 174 1823 discriminator 76 view .LVU1583
	leaq	-129(%rdx), %rbp
	.loc 1 174 1875 discriminator 76 view .LVU1584
	cmpq	$62, %rbp
	ja	.L630
	.loc 1 174 1903 discriminator 77 view .LVU1585
	movl	$192, %ecx
	subl	%edx, %ecx
	.loc 1 174 1875 discriminator 77 view .LVU1586
	movq	(%rsi), %rbx
	salq	%cl, %rbx
	movq	%rbx, %rcx
	jmp	.L461
.L630:
	.loc 1 174 1875 view .LVU1587
	movl	$0, %ecx
.L461:
	.loc 1 174 1821 discriminator 80 view .LVU1588
	addq	%r11, %rcx
	.loc 1 174 1730 discriminator 80 view .LVU1589
	orq	%rcx, %rax
	.loc 1 174 1148 discriminator 80 view .LVU1590
	movq	%rax, -24(%rsp)
	.loc 1 174 1915 is_stmt 1 discriminator 80 view .LVU1591
	.loc 1 174 1977 is_stmt 0 discriminator 80 view .LVU1592
	cmpq	$63, %rdx
	ja	.L631
	.loc 1 174 1977 discriminator 81 view .LVU1593
	movq	32(%rsi), %r11
	movl	%edx, %ecx
	shrq	%cl, %r11
	jmp	.L462
.L631:
	.loc 1 174 1977 view .LVU1594
	movl	$0, %r11d
.L462:
	.loc 1 174 2078 discriminator 84 view .LVU1595
	cmpq	$62, %r10
	ja	.L632
	.loc 1 174 2113 discriminator 85 view .LVU1596
	movl	%edx, %ecx
	negl	%ecx
	.loc 1 174 2078 discriminator 85 view .LVU1597
	movq	32(%rsi), %rax
	salq	%cl, %rax
	jmp	.L463
.L632:
	.loc 1 174 2078 view .LVU1598
	movl	$0, %eax
.L463:
	.loc 1 174 2028 discriminator 88 view .LVU1599
	addq	%r11, %rax
	.loc 1 174 2183 discriminator 88 view .LVU1600
	cmpq	$63, %r9
	ja	.L633
	.loc 1 174 2224 discriminator 89 view .LVU1601
	leal	-64(%rdx), %ecx
	.loc 1 174 2183 discriminator 89 view .LVU1602
	movq	24(%rsi), %rbx
	shrq	%cl, %rbx
	jmp	.L464
.L633:
	.loc 1 174 2183 view .LVU1603
	movl	$0, %ebx
.L464:
	.loc 1 174 2283 discriminator 92 view .LVU1604
	cmpq	$62, %r8
	ja	.L634
	.loc 1 174 2322 discriminator 93 view .LVU1605
	movl	$64, %ecx
	subl	%edx, %ecx
	.loc 1 174 2283 discriminator 93 view .LVU1606
	movq	24(%rsi), %r15
	salq	%cl, %r15
	movq	%r15, %rcx
	jmp	.L465
.L634:
	.loc 1 174 2283 view .LVU1607
	movl	$0, %ecx
.L465:
	.loc 1 174 2231 discriminator 96 view .LVU1608
	addq	%rbx, %rcx
	.loc 1 174 2131 discriminator 96 view .LVU1609
	orq	%rcx, %rax
	.loc 1 174 2387 discriminator 96 view .LVU1610
	cmpq	$63, %r14
	ja	.L635
	.loc 1 174 2424 discriminator 97 view .LVU1611
	leal	-128(%rdx), %ecx
	.loc 1 174 2387 discriminator 97 view .LVU1612
	movq	16(%rsi), %r11
	shrq	%cl, %r11
	jmp	.L466
.L635:
	.loc 1 174 2387 view .LVU1613
	movl	$0, %r11d
.L466:
	.loc 1 174 2486 discriminator 100 view .LVU1614
	cmpq	$62, %r13
	ja	.L636
	.loc 1 174 2522 discriminator 101 view .LVU1615
	movl	$128, %ecx
	subl	%edx, %ecx
	.loc 1 174 2486 discriminator 101 view .LVU1616
	movq	16(%rsi), %rbx
	salq	%cl, %rbx
	movq	%rbx, %rcx
	jmp	.L467
.L636:
	.loc 1 174 2486 view .LVU1617
	movl	$0, %ecx
.L467:
	.loc 1 174 2432 discriminator 104 view .LVU1618
	addq	%r11, %rcx
	.loc 1 174 2333 discriminator 104 view .LVU1619
	orq	%rcx, %rax
	.loc 1 174 2587 discriminator 104 view .LVU1620
	cmpq	$63, %r12
	ja	.L637
	.loc 1 174 2620 discriminator 105 view .LVU1621
	leal	-192(%rdx), %ecx
	.loc 1 174 2587 discriminator 105 view .LVU1622
	movq	8(%rsi), %r11
	shrq	%cl, %r11
	jmp	.L468
.L637:
	.loc 1 174 2587 view .LVU1623
	movl	$0, %r11d
.L468:
	.loc 1 174 2682 discriminator 108 view .LVU1624
	cmpq	$62, %rbp
	ja	.L638
	.loc 1 174 2714 discriminator 109 view .LVU1625
	movl	$192, %ecx
	subl	%edx, %ecx
	.loc 1 174 2682 discriminator 109 view .LVU1626
	movq	8(%rsi), %rbx
	salq	%cl, %rbx
	movq	%rbx, %rcx
	jmp	.L469
.L638:
	.loc 1 174 2682 view .LVU1627
	movl	$0, %ecx
.L469:
	.loc 1 174 2628 discriminator 112 view .LVU1628
	addq	%r11, %rcx
	.loc 1 174 2533 discriminator 112 view .LVU1629
	orq	%rcx, %rax
	movq	%rax, -112(%rsp)
	.loc 1 174 2728 discriminator 112 view .LVU1630
	leaq	-256(%rdx), %rbx
	.loc 1 174 2779 discriminator 112 view .LVU1631
	cmpq	$63, %rbx
	ja	.L639
	.loc 1 174 2779 discriminator 113 view .LVU1632
	movq	(%rsi), %r15
	movl	%edx, %ecx
	shrq	%cl, %r15
	jmp	.L470
.L639:
	.loc 1 174 2779 view .LVU1633
	movl	$0, %r15d
.L470:
	.loc 1 174 2818 discriminator 116 view .LVU1634
	leaq	-193(%rdx), %r11
	.loc 1 174 2870 discriminator 116 view .LVU1635
	cmpq	$62, %r11
	ja	.L640
	.loc 1 174 2898 discriminator 117 view .LVU1636
	movl	$256, %ecx
	subl	%edx, %ecx
	.loc 1 174 2870 discriminator 117 view .LVU1637
	movq	(%rsi), %rax
	salq	%cl, %rax
	movq	%rax, %rcx
	jmp	.L471
.L640:
	.loc 1 174 2870 view .LVU1638
	movl	$0, %ecx
.L471:
	.loc 1 174 2816 discriminator 120 view .LVU1639
	addq	%r15, %rcx
	.loc 1 174 2725 discriminator 120 view .LVU1640
	movq	-112(%rsp), %rax
	orq	%rcx, %rax
	.loc 1 174 1927 discriminator 120 view .LVU1641
	movq	%rax, -16(%rsp)
	.loc 1 174 2910 is_stmt 1 discriminator 120 view .LVU1642
	.loc 1 174 2972 is_stmt 0 discriminator 120 view .LVU1643
	cmpq	$63, %rdx
	ja	.L641
	.loc 1 174 2972 discriminator 121 view .LVU1644
	movq	40(%rsi), %r15
	movl	%edx, %ecx
	shrq	%cl, %r15
	jmp	.L472
.L641:
	.loc 1 174 2972 view .LVU1645
	movl	$0, %r15d
.L472:
	.loc 1 174 3073 discriminator 124 view .LVU1646
	cmpq	$62, %r10
	ja	.L642
	.loc 1 174 3108 discriminator 125 view .LVU1647
	movl	%edx, %ecx
	negl	%ecx
	.loc 1 174 3073 discriminator 125 view .LVU1648
	movq	40(%rsi), %rax
	salq	%cl, %rax
	jmp	.L473
.L642:
	.loc 1 174 3073 view .LVU1649
	movl	$0, %eax
.L473:
	.loc 1 174 3023 discriminator 128 view .LVU1650
	leaq	(%r15,%rax), %r10
	.loc 1 174 3178 discriminator 128 view .LVU1651
	cmpq	$63, %r9
	ja	.L643
	.loc 1 174 3219 discriminator 129 view .LVU1652
	leal	-64(%rdx), %ecx
	.loc 1 174 3178 discriminator 129 view .LVU1653
	movq	32(%rsi), %rax
	shrq	%cl, %rax
	jmp	.L474
.L643:
	.loc 1 174 3178 view .LVU1654
	movl	$0, %eax
.L474:
	.loc 1 174 3278 discriminator 132 view .LVU1655
	cmpq	$62, %r8
	ja	.L644
	.loc 1 174 3317 discriminator 133 view .LVU1656
	movl	$64, %ecx
	subl	%edx, %ecx
	.loc 1 174 3278 discriminator 133 view .LVU1657
	movq	32(%rsi), %r15
	salq	%cl, %r15
	movq	%r15, %rcx
	jmp	.L475
.L644:
	.loc 1 174 3278 view .LVU1658
	movl	$0, %ecx
.L475:
	.loc 1 174 3226 discriminator 136 view .LVU1659
	addq	%rcx, %rax
	.loc 1 174 3126 discriminator 136 view .LVU1660
	orq	%r10, %rax
	.loc 1 174 3382 discriminator 136 view .LVU1661
	cmpq	$63, %r14
	ja	.L645
	.loc 1 174 3419 discriminator 137 view .LVU1662
	leal	-128(%rdx), %ecx
	.loc 1 174 3382 discriminator 137 view .LVU1663
	movq	24(%rsi), %r8
	shrq	%cl, %r8
	jmp	.L476
.L645:
	.loc 1 174 3382 view .LVU1664
	movl	$0, %r8d
.L476:
	.loc 1 174 3481 discriminator 140 view .LVU1665
	cmpq	$62, %r13
	ja	.L646
	.loc 1 174 3517 discriminator 141 view .LVU1666
	movl	$128, %ecx
	subl	%edx, %ecx
	.loc 1 174 3481 discriminator 141 view .LVU1667
	movq	24(%rsi), %r15
	salq	%cl, %r15
	movq	%r15, %rcx
	jmp	.L477
.L646:
	.loc 1 174 3481 view .LVU1668
	movl	$0, %ecx
.L477:
	.loc 1 174 3427 discriminator 144 view .LVU1669
	addq	%rcx, %r8
	.loc 1 174 3328 discriminator 144 view .LVU1670
	orq	%r8, %rax
	.loc 1 174 3582 discriminator 144 view .LVU1671
	cmpq	$63, %r12
	ja	.L647
	.loc 1 174 3615 discriminator 145 view .LVU1672
	leal	-192(%rdx), %ecx
	.loc 1 174 3582 discriminator 145 view .LVU1673
	movq	16(%rsi), %r8
	shrq	%cl, %r8
	jmp	.L478
.L647:
	.loc 1 174 3582 view .LVU1674
	movl	$0, %r8d
.L478:
	.loc 1 174 3677 discriminator 148 view .LVU1675
	cmpq	$62, %rbp
	ja	.L648
	.loc 1 174 3709 discriminator 149 view .LVU1676
	movl	$192, %ecx
	subl	%edx, %ecx
	.loc 1 174 3677 discriminator 149 view .LVU1677
	movq	16(%rsi), %r15
	salq	%cl, %r15
	movq	%r15, %rcx
	jmp	.L479
.L648:
	.loc 1 174 3677 view .LVU1678
	movl	$0, %ecx
.L479:
	.loc 1 174 3623 discriminator 152 view .LVU1679
	addq	%rcx, %r8
	.loc 1 174 3528 discriminator 152 view .LVU1680
	orq	%r8, %rax
	.loc 1 174 3774 discriminator 152 view .LVU1681
	cmpq	$63, %rbx
	ja	.L649
	.loc 1 174 3774 discriminator 153 view .LVU1682
	movq	8(%rsi), %r8
	movl	%edx, %ecx
	shrq	%cl, %r8
	jmp	.L480
.L649:
	.loc 1 174 3774 view .LVU1683
	movl	$0, %r8d
.L480:
	.loc 1 174 3865 discriminator 156 view .LVU1684
	cmpq	$62, %r11
	ja	.L650
	.loc 1 174 3893 discriminator 157 view .LVU1685
	movl	$256, %ecx
	subl	%edx, %ecx
	.loc 1 174 3865 discriminator 157 view .LVU1686
	movq	8(%rsi), %rbx
	salq	%cl, %rbx
	movq	%rbx, %rcx
	jmp	.L481
.L650:
	.loc 1 174 3865 view .LVU1687
	movl	$0, %ecx
.L481:
	.loc 1 174 3811 discriminator 160 view .LVU1688
	addq	%rcx, %r8
	.loc 1 174 3720 discriminator 160 view .LVU1689
	orq	%r8, %rax
	.loc 1 174 3907 discriminator 160 view .LVU1690
	leaq	-320(%rdx), %rcx
	.loc 1 174 3958 discriminator 160 view .LVU1691
	cmpq	$63, %rcx
	ja	.L651
	.loc 1 174 3983 discriminator 161 view .LVU1692
	leal	-320(%rdx), %ecx
	.loc 1 174 3958 discriminator 161 view .LVU1693
	movq	(%rsi), %r8
	shrq	%cl, %r8
	jmp	.L482
.L651:
	.loc 1 174 3958 view .LVU1694
	movl	$0, %r8d
.L482:
	.loc 1 174 3993 discriminator 164 view .LVU1695
	leaq	-257(%rdx), %rcx
	.loc 1 174 4045 discriminator 164 view .LVU1696
	cmpq	$62, %rcx
	ja	.L652
	.loc 1 174 4069 discriminator 165 view .LVU1697
	movl	$320, %ecx
	subl	%edx, %ecx
	.loc 1 174 4045 discriminator 165 view .LVU1698
	movq	(%rsi), %rbx
	salq	%cl, %rbx
	movq	%rbx, %rcx
	jmp	.L483
.L652:
	.loc 1 174 4045 view .LVU1699
	movl	$0, %ecx
.L483:
	.loc 1 174 3991 discriminator 168 view .LVU1700
	addq	%rcx, %r8
	.loc 1 174 3904 discriminator 168 view .LVU1701
	orq	%r8, %rax
	.loc 1 174 2922 discriminator 168 view .LVU1702
	movq	%rax, -8(%rsp)
	.loc 1 174 4080 is_stmt 1 discriminator 168 view .LVU1703
	.loc 1 175 9 discriminator 168 view .LVU1704
	.loc 1 175 16 is_stmt 0 discriminator 168 view .LVU1705
	movl	$384, %eax
	subq	%rdx, %rax
.LVL49:
	.loc 1 176 9 is_stmt 1 discriminator 168 view .LVU1706
	.loc 1 176 71 is_stmt 0 discriminator 168 view .LVU1707
	cmpq	$63, %rax
	ja	.L653
	.loc 1 176 71 discriminator 1 view .LVU1708
	movq	40(%rsi), %r8
	movl	%eax, %ecx
	salq	%cl, %r8
	jmp	.L484
.L653:
	.loc 1 176 71 view .LVU1709
	movl	$0, %r8d
.L484:
	.loc 1 176 106 discriminator 4 view .LVU1710
	movl	$447, %r9d
	subq	%rdx, %r9
	.loc 1 176 154 discriminator 4 view .LVU1711
	cmpq	$62, %r9
	ja	.L654
	.loc 1 176 171 discriminator 5 view .LVU1712
	movl	%eax, %ecx
	negl	%ecx
	.loc 1 176 154 discriminator 5 view .LVU1713
	movq	40(%rsi), %rbx
	shrq	%cl, %rbx
	movq	%rbx, %rcx
	jmp	.L485
.L654:
	.loc 1 176 154 view .LVU1714
	movl	$0, %ecx
.L485:
	.loc 1 176 104 discriminator 8 view .LVU1715
	addq	%rcx, %r8
	.loc 1 176 21 discriminator 8 view .LVU1716
	movq	%r8, -56(%rsp)
	.loc 1 176 190 is_stmt 1 discriminator 8 view .LVU1717
	.loc 1 176 252 is_stmt 0 discriminator 8 view .LVU1718
	cmpq	$63, %rax
	ja	.L655
	.loc 1 176 252 discriminator 9 view .LVU1719
	movq	32(%rsi), %r8
	movl	%eax, %ecx
	salq	%cl, %r8
	jmp	.L486
.L655:
	.loc 1 176 252 view .LVU1720
	movl	$0, %r8d
.L486:
	.loc 1 176 339 discriminator 12 view .LVU1721
	cmpq	$62, %r9
	ja	.L656
	.loc 1 176 360 discriminator 13 view .LVU1722
	movl	%eax, %ecx
	negl	%ecx
	.loc 1 176 339 discriminator 13 view .LVU1723
	movq	32(%rsi), %rbx
	shrq	%cl, %rbx
	movq	%rbx, %rcx
	jmp	.L487
.L656:
	.loc 1 176 339 view .LVU1724
	movl	$0, %ecx
.L487:
	.loc 1 176 289 discriminator 16 view .LVU1725
	leaq	(%r8,%rcx), %rbx
	.loc 1 176 381 discriminator 16 view .LVU1726
	movl	$320, %r11d
	subq	%rdx, %r11
	.loc 1 176 430 discriminator 16 view .LVU1727
	cmpq	$63, %r11
	ja	.L657
	.loc 1 176 457 discriminator 17 view .LVU1728
	leal	-64(%rax), %ecx
	.loc 1 176 430 discriminator 17 view .LVU1729
	movq	40(%rsi), %r8
	salq	%cl, %r8
	jmp	.L488
.L657:
	.loc 1 176 430 view .LVU1730
	movl	$0, %r8d
.L488:
	.loc 1 176 466 discriminator 20 view .LVU1731
	movl	$383, %r10d
	subq	%rdx, %r10
	.loc 1 176 516 discriminator 20 view .LVU1732
	cmpq	$62, %r10
	ja	.L658
	.loc 1 176 541 discriminator 21 view .LVU1733
	movl	$64, %ecx
	subl	%eax, %ecx
	.loc 1 176 516 discriminator 21 view .LVU1734
	movq	40(%rsi), %r15
	shrq	%cl, %r15
	movq	%r15, %rcx
	jmp	.L489
.L658:
	.loc 1 176 516 view .LVU1735
	movl	$0, %ecx
.L489:
	.loc 1 176 464 discriminator 24 view .LVU1736
	addq	%rcx, %r8
	.loc 1 176 378 discriminator 24 view .LVU1737
	orq	%rbx, %r8
	.loc 1 176 202 discriminator 24 view .LVU1738
	movq	%r8, -64(%rsp)
	.loc 1 176 553 is_stmt 1 discriminator 24 view .LVU1739
	.loc 1 176 615 is_stmt 0 discriminator 24 view .LVU1740
	cmpq	$63, %rax
	ja	.L659
	.loc 1 176 615 discriminator 25 view .LVU1741
	movq	24(%rsi), %rbx
	movl	%eax, %ecx
	salq	%cl, %rbx
	jmp	.L490
.L659:
	.loc 1 176 615 view .LVU1742
	movl	$0, %ebx
.L490:
	.loc 1 176 706 discriminator 28 view .LVU1743
	cmpq	$62, %r9
	ja	.L660
	.loc 1 176 731 discriminator 29 view .LVU1744
	movl	%eax, %ecx
	negl	%ecx
	.loc 1 176 706 discriminator 29 view .LVU1745
	movq	24(%rsi), %r15
	shrq	%cl, %r15
	movq	%r15, %rcx
	jmp	.L491
.L660:
	.loc 1 176 706 view .LVU1746
	movl	$0, %ecx
.L491:
	.loc 1 176 656 discriminator 32 view .LVU1747
	addq	%rcx, %rbx
	.loc 1 176 801 discriminator 32 view .LVU1748
	cmpq	$63, %r11
	ja	.L661
	.loc 1 176 832 discriminator 33 view .LVU1749
	leal	-64(%rax), %ecx
	.loc 1 176 801 discriminator 33 view .LVU1750
	movq	32(%rsi), %r8
	salq	%cl, %r8
	jmp	.L492
.L661:
	.loc 1 176 801 view .LVU1751
	movl	$0, %r8d
.L492:
	.loc 1 176 891 discriminator 36 view .LVU1752
	cmpq	$62, %r10
	ja	.L662
	.loc 1 176 920 discriminator 37 view .LVU1753
	movl	$64, %ecx
	subl	%eax, %ecx
	.loc 1 176 891 discriminator 37 view .LVU1754
	movq	32(%rsi), %r15
	shrq	%cl, %r15
	movq	%r15, %rcx
	jmp	.L493
.L662:
	.loc 1 176 891 view .LVU1755
	movl	$0, %ecx
.L493:
	.loc 1 176 839 discriminator 40 view .LVU1756
	addq	%rcx, %r8
	.loc 1 176 749 discriminator 40 view .LVU1757
	orq	%rbx, %r8
	.loc 1 176 934 discriminator 40 view .LVU1758
	movl	$256, %ebp
	subq	%rdx, %rbp
	.loc 1 176 985 discriminator 40 view .LVU1759
	cmpq	$63, %rbp
	ja	.L663
	.loc 1 176 1012 discriminator 41 view .LVU1760
	leal	-128(%rax), %ecx
	.loc 1 176 985 discriminator 41 view .LVU1761
	movq	40(%rsi), %r12
	salq	%cl, %r12
	jmp	.L494
.L663:
	.loc 1 176 985 view .LVU1762
	movl	$0, %r12d
.L494:
	.loc 1 176 1022 discriminator 44 view .LVU1763
	movl	$319, %ebx
	subq	%rdx, %rbx
	.loc 1 176 1074 discriminator 44 view .LVU1764
	cmpq	$62, %rbx
	ja	.L664
	.loc 1 176 1100 discriminator 45 view .LVU1765
	movl	$128, %ecx
	subl	%eax, %ecx
	.loc 1 176 1074 discriminator 45 view .LVU1766
	movq	40(%rsi), %r15
	shrq	%cl, %r15
	movq	%r15, %rcx
	jmp	.L495
.L664:
	.loc 1 176 1074 view .LVU1767
	movl	$0, %ecx
.L495:
	.loc 1 176 1020 discriminator 48 view .LVU1768
	addq	%r12, %rcx
	.loc 1 176 931 discriminator 48 view .LVU1769
	orq	%rcx, %r8
	.loc 1 176 565 discriminator 48 view .LVU1770
	movq	%r8, -72(%rsp)
	.loc 1 176 1112 is_stmt 1 discriminator 48 view .LVU1771
	.loc 1 176 1174 is_stmt 0 discriminator 48 view .LVU1772
	cmpq	$63, %rax
	ja	.L665
	.loc 1 176 1174 discriminator 49 view .LVU1773
	movq	16(%rsi), %r8
	movl	%eax, %ecx
	salq	%cl, %r8
	jmp	.L496
.L665:
	.loc 1 176 1174 view .LVU1774
	movl	$0, %r8d
.L496:
	.loc 1 176 1269 discriminator 52 view .LVU1775
	cmpq	$62, %r9
	ja	.L666
	.loc 1 176 1298 discriminator 53 view .LVU1776
	movl	%eax, %ecx
	negl	%ecx
	.loc 1 176 1269 discriminator 53 view .LVU1777
	movq	16(%rsi), %r15
	shrq	%cl, %r15
	movq	%r15, %rcx
	jmp	.L497
.L666:
	.loc 1 176 1269 view .LVU1778
	movl	$0, %ecx
.L497:
	.loc 1 176 1219 discriminator 56 view .LVU1779
	addq	%rcx, %r8
	.loc 1 176 1368 discriminator 56 view .LVU1780
	cmpq	$63, %r11
	ja	.L667
	.loc 1 176 1403 discriminator 57 view .LVU1781
	leal	-64(%rax), %ecx
	.loc 1 176 1368 discriminator 57 view .LVU1782
	movq	24(%rsi), %r12
	salq	%cl, %r12
	jmp	.L498
.L667:
	.loc 1 176 1368 view .LVU1783
	movl	$0, %r12d
.L498:
	.loc 1 176 1462 discriminator 60 view .LVU1784
	cmpq	$62, %r10
	ja	.L668
	.loc 1 176 1495 discriminator 61 view .LVU1785
	movl	$64, %ecx
	subl	%eax, %ecx
	.loc 1 176 1462 discriminator 61 view .LVU1786
	movq	24(%rsi), %r15
	shrq	%cl, %r15
	movq	%r15, %rcx
	jmp	.L499
.L668:
	.loc 1 176 1462 view .LVU1787
	movl	$0, %ecx
.L499:
	.loc 1 176 1410 discriminator 64 view .LVU1788
	addq	%rcx, %r12
	.loc 1 176 1316 discriminator 64 view .LVU1789
	orq	%r8, %r12
	.loc 1 176 1560 discriminator 64 view .LVU1790
	cmpq	$63, %rbp
	ja	.L669
	.loc 1 176 1591 discriminator 65 view .LVU1791
	leal	-128(%rax), %ecx
	.loc 1 176 1560 discriminator 65 view .LVU1792
	movq	32(%rsi), %r8
	salq	%cl, %r8
	jmp	.L500
.L669:
	.loc 1 176 1560 view .LVU1793
	movl	$0, %r8d
.L500:
	.loc 1 176 1653 discriminator 68 view .LVU1794
	cmpq	$62, %rbx
	ja	.L670
	.loc 1 176 1683 discriminator 69 view .LVU1795
	movl	$128, %ecx
	subl	%eax, %ecx
	.loc 1 176 1653 discriminator 69 view .LVU1796
	movq	32(%rsi), %r15
	shrq	%cl, %r15
	movq	%r15, %rcx
	jmp	.L501
.L670:
	.loc 1 176 1653 view .LVU1797
	movl	$0, %ecx
.L501:
	.loc 1 176 1599 discriminator 72 view .LVU1798
	addq	%rcx, %r8
	.loc 1 176 1506 discriminator 72 view .LVU1799
	orq	%r12, %r8
	.loc 1 176 1697 discriminator 72 view .LVU1800
	movl	$192, %r13d
	subq	%rdx, %r13
	.loc 1 176 1748 discriminator 72 view .LVU1801
	cmpq	$63, %r13
	ja	.L671
	.loc 1 176 1775 discriminator 73 view .LVU1802
	leal	-192(%rax), %ecx
	.loc 1 176 1748 discriminator 73 view .LVU1803
	movq	40(%rsi), %r14
	salq	%cl, %r14
	jmp	.L502
.L671:
	.loc 1 176 1748 view .LVU1804
	movl	$0, %r14d
.L502:
	.loc 1 176 1785 discriminator 76 view .LVU1805
	movl	$255, %r12d
	subq	%rdx, %r12
	.loc 1 176 1837 discriminator 76 view .LVU1806
	cmpq	$62, %r12
	ja	.L672
	.loc 1 176 1863 discriminator 77 view .LVU1807
	movl	$192, %ecx
	subl	%eax, %ecx
	.loc 1 176 1837 discriminator 77 view .LVU1808
	movq	40(%rsi), %r15
	shrq	%cl, %r15
	movq	%r15, %rcx
	jmp	.L503
.L672:
	.loc 1 176 1837 view .LVU1809
	movl	$0, %ecx
.L503:
	.loc 1 176 1783 discriminator 80 view .LVU1810
	addq	%r14, %rcx
	.loc 1 176 1694 discriminator 80 view .LVU1811
	orq	%rcx, %r8
	.loc 1 176 1124 discriminator 80 view .LVU1812
	movq	%r8, -80(%rsp)
	.loc 1 176 1875 is_stmt 1 discriminator 80 view .LVU1813
	.loc 1 176 1937 is_stmt 0 discriminator 80 view .LVU1814
	cmpq	$63, %rax
	ja	.L673
	.loc 1 176 1937 discriminator 81 view .LVU1815
	movq	8(%rsi), %r8
	movl	%eax, %ecx
	salq	%cl, %r8
	jmp	.L504
.L673:
	.loc 1 176 1937 view .LVU1816
	movl	$0, %r8d
.L504:
	.loc 1 176 2036 discriminator 84 view .LVU1817
	cmpq	$62, %r9
	ja	.L674
	.loc 1 176 2069 discriminator 85 view .LVU1818
	movl	%eax, %ecx
	negl	%ecx
	.loc 1 176 2036 discriminator 85 view .LVU1819
	movq	8(%rsi), %r15
	shrq	%cl, %r15
	movq	%r15, %rcx
	jmp	.L505
.L674:
	.loc 1 176 2036 view .LVU1820
	movl	$0, %ecx
.L505:
	.loc 1 176 1986 discriminator 88 view .LVU1821
	addq	%rcx, %r8
	.loc 1 176 2139 discriminator 88 view .LVU1822
	cmpq	$63, %r11
	ja	.L675
	.loc 1 176 2178 discriminator 89 view .LVU1823
	leal	-64(%rax), %ecx
	.loc 1 176 2139 discriminator 89 view .LVU1824
	movq	16(%rsi), %r14
	salq	%cl, %r14
	jmp	.L506
.L675:
	.loc 1 176 2139 view .LVU1825
	movl	$0, %r14d
.L506:
	.loc 1 176 2237 discriminator 92 view .LVU1826
	cmpq	$62, %r10
	ja	.L676
	.loc 1 176 2274 discriminator 93 view .LVU1827
	movl	$64, %ecx
	subl	%eax, %ecx
	.loc 1 176 2237 discriminator 93 view .LVU1828
	movq	16(%rsi), %r15
	shrq	%cl, %r15
	movq	%r15, %rcx
	jmp	.L507
.L676:
	.loc 1 176 2237 view .LVU1829
	movl	$0, %ecx
.L507:
	.loc 1 176 2185 discriminator 96 view .LVU1830
	addq	%r14, %rcx
	.loc 1 176 2087 discriminator 96 view .LVU1831
	orq	%rcx, %r8
	.loc 1 176 2339 discriminator 96 view .LVU1832
	cmpq	$63, %rbp
	ja	.L677
	.loc 1 176 2374 discriminator 97 view .LVU1833
	leal	-128(%rax), %ecx
	.loc 1 176 2339 discriminator 97 view .LVU1834
	movq	24(%rsi), %r14
	salq	%cl, %r14
	jmp	.L508
.L677:
	.loc 1 176 2339 view .LVU1835
	movl	$0, %r14d
.L508:
	.loc 1 176 2436 discriminator 100 view .LVU1836
	cmpq	$62, %rbx
	ja	.L678
	.loc 1 176 2470 discriminator 101 view .LVU1837
	movl	$128, %ecx
	subl	%eax, %ecx
	.loc 1 176 2436 discriminator 101 view .LVU1838
	movq	24(%rsi), %r15
	shrq	%cl, %r15
	movq	%r15, %rcx
	jmp	.L509
.L678:
	.loc 1 176 2436 view .LVU1839
	movl	$0, %ecx
.L509:
	.loc 1 176 2382 discriminator 104 view .LVU1840
	addq	%r14, %rcx
	.loc 1 176 2285 discriminator 104 view .LVU1841
	orq	%rcx, %r8
	.loc 1 176 2535 discriminator 104 view .LVU1842
	cmpq	$63, %r13
	ja	.L679
	.loc 1 176 2566 discriminator 105 view .LVU1843
	leal	-192(%rax), %ecx
	.loc 1 176 2535 discriminator 105 view .LVU1844
	movq	32(%rsi), %r14
	salq	%cl, %r14
	jmp	.L510
.L679:
	.loc 1 176 2535 view .LVU1845
	movl	$0, %r14d
.L510:
	.loc 1 176 2628 discriminator 108 view .LVU1846
	cmpq	$62, %r12
	ja	.L680
	.loc 1 176 2658 discriminator 109 view .LVU1847
	movl	$192, %ecx
	subl	%eax, %ecx
	.loc 1 176 2628 discriminator 109 view .LVU1848
	movq	32(%rsi), %r15
	shrq	%cl, %r15
	movq	%r15, %rcx
	jmp	.L511
.L680:
	.loc 1 176 2628 view .LVU1849
	movl	$0, %ecx
.L511:
	.loc 1 176 2574 discriminator 112 view .LVU1850
	addq	%r14, %rcx
	.loc 1 176 2481 discriminator 112 view .LVU1851
	orq	%rcx, %r8
	movq	%r8, -112(%rsp)
	.loc 1 176 2672 discriminator 112 view .LVU1852
	movl	$128, %r15d
	subq	%rdx, %r15
	.loc 1 176 2723 discriminator 112 view .LVU1853
	cmpq	$63, %r15
	ja	.L681
	.loc 1 176 2723 discriminator 113 view .LVU1854
	movq	40(%rsi), %r14
	movl	%eax, %ecx
	salq	%cl, %r14
	movq	%r14, -104(%rsp)
	jmp	.L512
.L681:
	.loc 1 176 2723 view .LVU1855
	movq	$0, -104(%rsp)
.L512:
	.loc 1 176 2760 discriminator 116 view .LVU1856
	movl	$191, %r14d
	subq	%rdx, %r14
	.loc 1 176 2812 discriminator 116 view .LVU1857
	cmpq	$62, %r14
	ja	.L682
	.loc 1 176 2838 discriminator 117 view .LVU1858
	movl	$256, %ecx
	subl	%eax, %ecx
	.loc 1 176 2812 discriminator 117 view .LVU1859
	movq	40(%rsi), %r8
	shrq	%cl, %r8
	movq	%r8, %rcx
	jmp	.L513
.L682:
	.loc 1 176 2812 view .LVU1860
	movl	$0, %ecx
.L513:
	.loc 1 176 2758 discriminator 120 view .LVU1861
	addq	-104(%rsp), %rcx
	.loc 1 176 2669 discriminator 120 view .LVU1862
	movq	-112(%rsp), %r8
	orq	%rcx, %r8
	.loc 1 176 1887 discriminator 120 view .LVU1863
	movq	%r8, -88(%rsp)
	.loc 1 176 2850 is_stmt 1 discriminator 120 view .LVU1864
	.loc 1 176 2912 is_stmt 0 discriminator 120 view .LVU1865
	cmpq	$63, %rax
	ja	.L683
	.loc 1 176 2912 discriminator 121 view .LVU1866
	movq	(%rsi), %r8
	movl	%eax, %ecx
	salq	%cl, %r8
	jmp	.L514
.L683:
	.loc 1 176 2912 view .LVU1867
	movl	$0, %r8d
.L514:
	.loc 1 176 3011 discriminator 124 view .LVU1868
	cmpq	$62, %r9
	ja	.L684
	.loc 1 176 3044 discriminator 125 view .LVU1869
	movl	%eax, %ecx
	negl	%ecx
	.loc 1 176 3011 discriminator 125 view .LVU1870
	movq	(%rsi), %r9
	shrq	%cl, %r9
	movq	%r9, %rcx
	jmp	.L515
.L684:
	.loc 1 176 3011 view .LVU1871
	movl	$0, %ecx
.L515:
	.loc 1 176 2961 discriminator 128 view .LVU1872
	addq	%rcx, %r8
	.loc 1 176 3114 discriminator 128 view .LVU1873
	cmpq	$63, %r11
	ja	.L685
	.loc 1 176 3153 discriminator 129 view .LVU1874
	leal	-64(%rax), %ecx
	.loc 1 176 3114 discriminator 129 view .LVU1875
	movq	8(%rsi), %r9
	salq	%cl, %r9
	jmp	.L516
.L685:
	.loc 1 176 3114 view .LVU1876
	movl	$0, %r9d
.L516:
	.loc 1 176 3212 discriminator 132 view .LVU1877
	cmpq	$62, %r10
	ja	.L686
	.loc 1 176 3249 discriminator 133 view .LVU1878
	movl	$64, %ecx
	subl	%eax, %ecx
	.loc 1 176 3212 discriminator 133 view .LVU1879
	movq	8(%rsi), %r10
	shrq	%cl, %r10
	movq	%r10, %rcx
	jmp	.L517
.L686:
	.loc 1 176 3212 view .LVU1880
	movl	$0, %ecx
.L517:
	.loc 1 176 3160 discriminator 136 view .LVU1881
	leaq	(%r9,%rcx), %r10
	.loc 1 176 3062 discriminator 136 view .LVU1882
	orq	%r8, %r10
	.loc 1 176 3314 discriminator 136 view .LVU1883
	cmpq	$63, %rbp
	ja	.L687
	.loc 1 176 3349 discriminator 137 view .LVU1884
	leal	-128(%rax), %ecx
	.loc 1 176 3314 discriminator 137 view .LVU1885
	movq	16(%rsi), %r11
	salq	%cl, %r11
	jmp	.L518
.L687:
	.loc 1 176 3314 view .LVU1886
	movl	$0, %r11d
.L518:
	.loc 1 176 3411 discriminator 140 view .LVU1887
	cmpq	$62, %rbx
	ja	.L688
	.loc 1 176 3445 discriminator 141 view .LVU1888
	movl	$128, %ecx
	subl	%eax, %ecx
	.loc 1 176 3411 discriminator 141 view .LVU1889
	movq	16(%rsi), %rbx
	shrq	%cl, %rbx
	movq	%rbx, %rcx
	jmp	.L519
.L688:
	.loc 1 176 3411 view .LVU1890
	movl	$0, %ecx
.L519:
	.loc 1 176 3357 discriminator 144 view .LVU1891
	addq	%rcx, %r11
	.loc 1 176 3260 discriminator 144 view .LVU1892
	orq	%r10, %r11
	.loc 1 176 3510 discriminator 144 view .LVU1893
	cmpq	$63, %r13
	ja	.L689
	.loc 1 176 3541 discriminator 145 view .LVU1894
	leal	-192(%rax), %ecx
	.loc 1 176 3510 discriminator 145 view .LVU1895
	movq	24(%rsi), %r10
	salq	%cl, %r10
	jmp	.L520
.L689:
	.loc 1 176 3510 view .LVU1896
	movl	$0, %r10d
.L520:
	.loc 1 176 3603 discriminator 148 view .LVU1897
	cmpq	$62, %r12
	ja	.L690
	.loc 1 176 3633 discriminator 149 view .LVU1898
	movl	$192, %ecx
	subl	%eax, %ecx
	.loc 1 176 3603 discriminator 149 view .LVU1899
	movq	24(%rsi), %rbx
	shrq	%cl, %rbx
	movq	%rbx, %rcx
	jmp	.L521
.L690:
	.loc 1 176 3603 view .LVU1900
	movl	$0, %ecx
.L521:
	.loc 1 176 3549 discriminator 152 view .LVU1901
	addq	%rcx, %r10
	.loc 1 176 3456 discriminator 152 view .LVU1902
	orq	%r11, %r10
	.loc 1 176 3698 discriminator 152 view .LVU1903
	cmpq	$63, %r15
	ja	.L691
	.loc 1 176 3698 discriminator 153 view .LVU1904
	movq	32(%rsi), %r9
	movl	%eax, %ecx
	salq	%cl, %r9
	jmp	.L522
.L691:
	.loc 1 176 3698 view .LVU1905
	movl	$0, %r9d
.L522:
	.loc 1 176 3787 discriminator 156 view .LVU1906
	cmpq	$62, %r14
	ja	.L692
	.loc 1 176 3813 discriminator 157 view .LVU1907
	movl	$256, %ecx
	subl	%eax, %ecx
	.loc 1 176 3787 discriminator 157 view .LVU1908
	movq	32(%rsi), %rbx
	shrq	%cl, %rbx
	movq	%rbx, %rcx
	jmp	.L523
.L692:
	.loc 1 176 3787 view .LVU1909
	movl	$0, %ecx
.L523:
	.loc 1 176 3733 discriminator 160 view .LVU1910
	addq	%rcx, %r9
	.loc 1 176 3644 discriminator 160 view .LVU1911
	orq	%r9, %r10
	.loc 1 176 3827 discriminator 160 view .LVU1912
	movl	$64, %ecx
	subq	%rdx, %rcx
	.loc 1 176 3878 discriminator 160 view .LVU1913
	cmpq	$63, %rcx
	ja	.L693
	.loc 1 176 3901 discriminator 161 view .LVU1914
	leal	-320(%rax), %ecx
	.loc 1 176 3878 discriminator 161 view .LVU1915
	movq	40(%rsi), %r8
	salq	%cl, %r8
	jmp	.L524
.L693:
	.loc 1 176 3878 view .LVU1916
	movl	$0, %r8d
.L524:
	.loc 1 176 3911 discriminator 164 view .LVU1917
	movl	$127, %ecx
	subq	%rdx, %rcx
	.loc 1 176 3963 discriminator 164 view .LVU1918
	cmpq	$62, %rcx
	ja	.L694
	.loc 1 176 3970 discriminator 165 view .LVU1919
	movq	40(%rsi), %rdx
	.loc 1 176 3985 discriminator 165 view .LVU1920
	movl	$320, %ecx
	subl	%eax, %ecx
	.loc 1 176 3963 discriminator 165 view .LVU1921
	movq	%rdx, %rax
.LVL50:
	.loc 1 176 3963 discriminator 165 view .LVU1922
	shrq	%cl, %rax
	jmp	.L525
.LVL51:
.L694:
	.loc 1 176 3963 view .LVU1923
	movl	$0, %eax
.LVL52:
.L525:
	.loc 1 176 3909 discriminator 168 view .LVU1924
	addq	%rax, %r8
	.loc 1 176 3824 discriminator 168 view .LVU1925
	orq	%r10, %r8
	.loc 1 176 2862 discriminator 168 view .LVU1926
	movq	%r8, -96(%rsp)
.L441:
	.loc 1 176 3996 is_stmt 1 discriminator 169 view .LVU1927
	.loc 1 179 5 discriminator 169 view .LVU1928
	.loc 1 179 30 is_stmt 0 discriminator 169 view .LVU1929
	movq	-96(%rsp), %rax
	.loc 1 179 25 discriminator 169 view .LVU1930
	orq	-48(%rsp), %rax
	.loc 1 179 15 discriminator 169 view .LVU1931
	movq	%rax, (%rdi)
	.loc 1 180 30 discriminator 169 view .LVU1932
	movq	-88(%rsp), %rax
	.loc 1 180 25 discriminator 169 view .LVU1933
	orq	-40(%rsp), %rax
	.loc 1 180 15 discriminator 169 view .LVU1934
	movq	%rax, 8(%rdi)
	.loc 1 181 30 discriminator 169 view .LVU1935
	movq	-80(%rsp), %rax
	.loc 1 181 25 discriminator 169 view .LVU1936
	orq	-32(%rsp), %rax
	.loc 1 181 15 discriminator 169 view .LVU1937
	movq	%rax, 16(%rdi)
	.loc 1 182 30 discriminator 169 view .LVU1938
	movq	-72(%rsp), %rax
	.loc 1 182 25 discriminator 169 view .LVU1939
	orq	-24(%rsp), %rax
	.loc 1 182 15 discriminator 169 view .LVU1940
	movq	%rax, 24(%rdi)
	.loc 1 183 30 discriminator 169 view .LVU1941
	movq	-64(%rsp), %rax
	.loc 1 183 25 discriminator 169 view .LVU1942
	orq	-16(%rsp), %rax
	.loc 1 183 15 discriminator 169 view .LVU1943
	movq	%rax, 32(%rdi)
	.loc 1 184 30 discriminator 169 view .LVU1944
	movq	-56(%rsp), %rax
	.loc 1 184 25 discriminator 169 view .LVU1945
	orq	-8(%rsp), %rax
	.loc 1 184 15 discriminator 169 view .LVU1946
	movq	%rax, 40(%rdi)
	.loc 1 186 5 is_stmt 1 discriminator 169 view .LVU1947
	.loc 1 187 1 is_stmt 0 discriminator 169 view .LVU1948
	movq	%rdi, %rax
	popq	%rbx
	.cfi_def_cfa_offset 48
	popq	%rbp
	.cfi_def_cfa_offset 40
	popq	%r12
	.cfi_def_cfa_offset 32
	popq	%r13
	.cfi_def_cfa_offset 24
	popq	%r14
	.cfi_def_cfa_offset 16
	popq	%r15
	.cfi_def_cfa_offset 8
	ret
	.cfi_endproc
.LFE31:
	.size	biguint_rrot, .-biguint_rrot
	.globl	biguint_lrot
	.type	biguint_lrot, @function
biguint_lrot:
.LVL53:
.LFB32:
	.loc 1 189 1 is_stmt 1 view -0
	.cfi_startproc
	.loc 1 189 1 is_stmt 0 view .LVU1950
	pushq	%r15
	.cfi_def_cfa_offset 16
	.cfi_offset 15, -16
	pushq	%r14
	.cfi_def_cfa_offset 24
	.cfi_offset 14, -24
	pushq	%r13
	.cfi_def_cfa_offset 32
	.cfi_offset 13, -32
	pushq	%r12
	.cfi_def_cfa_offset 40
	.cfi_offset 12, -40
	pushq	%rbp
	.cfi_def_cfa_offset 48
	.cfi_offset 6, -48
	pushq	%rbx
	.cfi_def_cfa_offset 56
	.cfi_offset 3, -56
	movq	%rsi, %rcx
	movq	%rdx, %rsi
.LVL54:
	.loc 1 190 5 is_stmt 1 view .LVU1951
	.loc 1 190 22 is_stmt 0 view .LVU1952
	movabsq	$3074457345618258603, %rdx
.LVL55:
	.loc 1 190 22 view .LVU1953
	movq	%rcx, %rax
	imulq	%rdx
	sarq	$6, %rdx
	movq	%rcx, %rax
	sarq	$63, %rax
	subq	%rax, %rdx
	leaq	(%rdx,%rdx,2), %rax
	salq	$7, %rax
	movq	%rcx, %rdx
	subq	%rax, %rdx
	.loc 1 190 36 view .LVU1954
	testq	%rcx, %rcx
	js	.L1040
	movl	$0, %eax
.L699:
.LVL56:
	.loc 1 192 5 is_stmt 1 discriminator 4 view .LVU1955
	.loc 1 196 5 discriminator 4 view .LVU1956
	.loc 1 196 8 is_stmt 0 discriminator 4 view .LVU1957
	addq	%rax, %rdx
.LVL57:
	.loc 1 196 8 discriminator 4 view .LVU1958
	js	.L1041
	.loc 1 205 9 is_stmt 1 view .LVU1959
	.loc 1 205 71 is_stmt 0 view .LVU1960
	cmpq	$63, %rdx
	ja	.L955
	.loc 1 205 71 discriminator 1 view .LVU1961
	movq	40(%rsi), %rax
	movl	%edx, %ecx
	salq	%cl, %rax
	jmp	.L786
.LVL58:
.L1040:
	.loc 1 190 36 view .LVU1962
	movl	$384, %eax
	jmp	.L699
.LVL59:
.L1041:
	.loc 1 198 9 is_stmt 1 view .LVU1963
	.loc 1 198 16 is_stmt 0 view .LVU1964
	movq	%rdx, %rax
	negq	%rax
.LVL60:
	.loc 1 199 9 is_stmt 1 view .LVU1965
	.loc 1 199 71 is_stmt 0 view .LVU1966
	cmpq	$63, %rax
	ja	.L871
	.loc 1 199 71 discriminator 1 view .LVU1967
	movq	(%rsi), %r8
	movl	%eax, %ecx
	shrq	%cl, %r8
.L701:
	.loc 1 199 71 discriminator 1 view .LVU1968
	movl	$63, %r9d
	subq	%rdx, %r9
	.loc 1 199 156 discriminator 4 view .LVU1969
	cmpq	$62, %r9
	ja	.L872
	.loc 1 199 156 discriminator 5 view .LVU1970
	movq	(%rsi), %rbx
	movl	%edx, %ecx
	salq	%cl, %rbx
	movq	%rbx, %rcx
.L702:
	.loc 1 199 106 discriminator 8 view .LVU1971
	addq	%rcx, %r8
	.loc 1 199 21 discriminator 8 view .LVU1972
	movq	%r8, -48(%rsp)
	.loc 1 199 194 is_stmt 1 discriminator 8 view .LVU1973
	.loc 1 199 256 is_stmt 0 discriminator 8 view .LVU1974
	cmpq	$63, %rax
	ja	.L873
	.loc 1 199 256 discriminator 9 view .LVU1975
	movq	8(%rsi), %r8
	movl	%eax, %ecx
	shrq	%cl, %r8
.L703:
	.loc 1 199 345 discriminator 12 view .LVU1976
	cmpq	$62, %r9
	ja	.L874
	.loc 1 199 345 discriminator 13 view .LVU1977
	movq	8(%rsi), %rbx
	movl	%edx, %ecx
	salq	%cl, %rbx
	movq	%rbx, %rcx
.L704:
	.loc 1 199 295 discriminator 16 view .LVU1978
	addq	%rcx, %r8
	movq	$-64, %r10
	subq	%rdx, %r10
	.loc 1 199 438 discriminator 16 view .LVU1979
	cmpq	$63, %r10
	ja	.L875
	.loc 1 199 467 discriminator 17 view .LVU1980
	leal	-64(%rax), %ecx
	.loc 1 199 438 discriminator 17 view .LVU1981
	movq	(%rsi), %r11
	shrq	%cl, %r11
.L705:
	.loc 1 199 438 discriminator 17 view .LVU1982
	movq	%rdx, %r13
	notq	%r13
	.loc 1 199 526 discriminator 20 view .LVU1983
	cmpq	$62, %r13
	ja	.L876
	.loc 1 199 553 discriminator 21 view .LVU1984
	movl	$64, %ecx
	subl	%eax, %ecx
	.loc 1 199 526 discriminator 21 view .LVU1985
	movq	(%rsi), %rbx
	salq	%cl, %rbx
	movq	%rbx, %rcx
.L706:
	.loc 1 199 474 discriminator 24 view .LVU1986
	addq	%rcx, %r11
	.loc 1 199 386 discriminator 24 view .LVU1987
	orq	%r8, %r11
	.loc 1 199 206 discriminator 24 view .LVU1988
	movq	%r11, -40(%rsp)
	.loc 1 199 565 is_stmt 1 discriminator 24 view .LVU1989
	.loc 1 199 627 is_stmt 0 discriminator 24 view .LVU1990
	cmpq	$63, %rax
	ja	.L877
	.loc 1 199 627 discriminator 25 view .LVU1991
	movq	16(%rsi), %r11
	movl	%eax, %ecx
	shrq	%cl, %r11
.L707:
	.loc 1 199 720 discriminator 28 view .LVU1992
	cmpq	$62, %r9
	ja	.L878
	.loc 1 199 720 discriminator 29 view .LVU1993
	movq	16(%rsi), %rbx
	movl	%edx, %ecx
	salq	%cl, %rbx
	movq	%rbx, %rcx
.L708:
	.loc 1 199 670 discriminator 32 view .LVU1994
	addq	%rcx, %r11
	.loc 1 199 817 discriminator 32 view .LVU1995
	cmpq	$63, %r10
	ja	.L879
	.loc 1 199 850 discriminator 33 view .LVU1996
	leal	-64(%rax), %ecx
	.loc 1 199 817 discriminator 33 view .LVU1997
	movq	8(%rsi), %r8
	shrq	%cl, %r8
.L709:
	.loc 1 199 909 discriminator 36 view .LVU1998
	cmpq	$62, %r13
	ja	.L880
	.loc 1 199 940 discriminator 37 view .LVU1999
	movl	$64, %ecx
	subl	%eax, %ecx
	.loc 1 199 909 discriminator 37 view .LVU2000
	movq	8(%rsi), %rbx
	salq	%cl, %rbx
	movq	%rbx, %rcx
.L710:
	.loc 1 199 857 discriminator 40 view .LVU2001
	addq	%rcx, %r8
	.loc 1 199 765 discriminator 40 view .LVU2002
	orq	%r11, %r8
	movq	$-128, %rbx
	subq	%rdx, %rbx
	.loc 1 199 1005 discriminator 40 view .LVU2003
	cmpq	$63, %rbx
	ja	.L881
	.loc 1 199 1034 discriminator 41 view .LVU2004
	leal	-128(%rax), %ecx
	.loc 1 199 1005 discriminator 41 view .LVU2005
	movq	(%rsi), %rbp
	shrq	%cl, %rbp
.L711:
	.loc 1 199 1005 discriminator 41 view .LVU2006
	movq	$-65, %r11
	subq	%rdx, %r11
	.loc 1 199 1096 discriminator 44 view .LVU2007
	cmpq	$62, %r11
	ja	.L882
	.loc 1 199 1124 discriminator 45 view .LVU2008
	movl	$128, %ecx
	subl	%eax, %ecx
	.loc 1 199 1096 discriminator 45 view .LVU2009
	movq	(%rsi), %r15
	salq	%cl, %r15
	movq	%r15, %rcx
.L712:
	.loc 1 199 1042 discriminator 48 view .LVU2010
	addq	%rbp, %rcx
	.loc 1 199 951 discriminator 48 view .LVU2011
	orq	%rcx, %r8
	.loc 1 199 577 discriminator 48 view .LVU2012
	movq	%r8, -32(%rsp)
	.loc 1 199 1136 is_stmt 1 discriminator 48 view .LVU2013
	.loc 1 199 1198 is_stmt 0 discriminator 48 view .LVU2014
	cmpq	$63, %rax
	ja	.L883
	.loc 1 199 1198 discriminator 49 view .LVU2015
	movq	24(%rsi), %r8
	movl	%eax, %ecx
	shrq	%cl, %r8
.L713:
	.loc 1 199 1295 discriminator 52 view .LVU2016
	cmpq	$62, %r9
	ja	.L884
	.loc 1 199 1295 discriminator 53 view .LVU2017
	movq	24(%rsi), %r14
	movl	%edx, %ecx
	salq	%cl, %r14
	movq	%r14, %rcx
.L714:
	.loc 1 199 1245 discriminator 56 view .LVU2018
	addq	%rcx, %r8
	.loc 1 199 1396 discriminator 56 view .LVU2019
	cmpq	$63, %r10
	ja	.L885
	.loc 1 199 1433 discriminator 57 view .LVU2020
	leal	-64(%rax), %ecx
	.loc 1 199 1396 discriminator 57 view .LVU2021
	movq	16(%rsi), %rbp
	shrq	%cl, %rbp
.L715:
	.loc 1 199 1492 discriminator 60 view .LVU2022
	cmpq	$62, %r13
	ja	.L886
	.loc 1 199 1527 discriminator 61 view .LVU2023
	movl	$64, %ecx
	subl	%eax, %ecx
	.loc 1 199 1492 discriminator 61 view .LVU2024
	movq	16(%rsi), %r15
	salq	%cl, %r15
	movq	%r15, %rcx
.L716:
	.loc 1 199 1440 discriminator 64 view .LVU2025
	addq	%rcx, %rbp
	.loc 1 199 1344 discriminator 64 view .LVU2026
	orq	%r8, %rbp
	.loc 1 199 1592 discriminator 64 view .LVU2027
	cmpq	$63, %rbx
	ja	.L887
	.loc 1 199 1625 discriminator 65 view .LVU2028
	leal	-128(%rax), %ecx
	.loc 1 199 1592 discriminator 65 view .LVU2029
	movq	8(%rsi), %r8
	shrq	%cl, %r8
.L717:
	.loc 1 199 1687 discriminator 68 view .LVU2030
	cmpq	$62, %r11
	ja	.L888
	.loc 1 199 1719 discriminator 69 view .LVU2031
	movl	$128, %ecx
	subl	%eax, %ecx
	.loc 1 199 1687 discriminator 69 view .LVU2032
	movq	8(%rsi), %r14
	salq	%cl, %r14
	movq	%r14, %rcx
.L718:
	.loc 1 199 1633 discriminator 72 view .LVU2033
	addq	%rcx, %r8
	.loc 1 199 1538 discriminator 72 view .LVU2034
	orq	%rbp, %r8
	movq	$-192, %r12
	subq	%rdx, %r12
	.loc 1 199 1784 discriminator 72 view .LVU2035
	cmpq	$63, %r12
	ja	.L889
	.loc 1 199 1813 discriminator 73 view .LVU2036
	leal	-192(%rax), %ecx
	.loc 1 199 1784 discriminator 73 view .LVU2037
	movq	(%rsi), %r14
	shrq	%cl, %r14
.L719:
	.loc 1 199 1784 discriminator 73 view .LVU2038
	movq	$-129, %rbp
	subq	%rdx, %rbp
	.loc 1 199 1875 discriminator 76 view .LVU2039
	cmpq	$62, %rbp
	ja	.L890
	.loc 1 199 1903 discriminator 77 view .LVU2040
	movl	$192, %ecx
	subl	%eax, %ecx
	.loc 1 199 1875 discriminator 77 view .LVU2041
	movq	(%rsi), %r15
	salq	%cl, %r15
	movq	%r15, %rcx
.L720:
	.loc 1 199 1821 discriminator 80 view .LVU2042
	addq	%r14, %rcx
	.loc 1 199 1730 discriminator 80 view .LVU2043
	orq	%rcx, %r8
	.loc 1 199 1148 discriminator 80 view .LVU2044
	movq	%r8, -24(%rsp)
	.loc 1 199 1915 is_stmt 1 discriminator 80 view .LVU2045
	.loc 1 199 1977 is_stmt 0 discriminator 80 view .LVU2046
	cmpq	$63, %rax
	ja	.L891
	.loc 1 199 1977 discriminator 81 view .LVU2047
	movq	32(%rsi), %r8
	movl	%eax, %ecx
	shrq	%cl, %r8
.L721:
	.loc 1 199 2078 discriminator 84 view .LVU2048
	cmpq	$62, %r9
	ja	.L892
	.loc 1 199 2078 discriminator 85 view .LVU2049
	movq	32(%rsi), %r15
	movl	%edx, %ecx
	salq	%cl, %r15
	movq	%r15, %rcx
.L722:
	.loc 1 199 2028 discriminator 88 view .LVU2050
	addq	%rcx, %r8
	.loc 1 199 2183 discriminator 88 view .LVU2051
	cmpq	$63, %r10
	ja	.L893
	.loc 1 199 2224 discriminator 89 view .LVU2052
	leal	-64(%rax), %ecx
	.loc 1 199 2183 discriminator 89 view .LVU2053
	movq	24(%rsi), %r14
	shrq	%cl, %r14
.L723:
	.loc 1 199 2283 discriminator 92 view .LVU2054
	cmpq	$62, %r13
	ja	.L894
	.loc 1 199 2322 discriminator 93 view .LVU2055
	movl	$64, %ecx
	subl	%eax, %ecx
	.loc 1 199 2283 discriminator 93 view .LVU2056
	movq	24(%rsi), %r15
	salq	%cl, %r15
	movq	%r15, %rcx
.L724:
	.loc 1 199 2231 discriminator 96 view .LVU2057
	addq	%r14, %rcx
	.loc 1 199 2131 discriminator 96 view .LVU2058
	orq	%rcx, %r8
	.loc 1 199 2387 discriminator 96 view .LVU2059
	cmpq	$63, %rbx
	ja	.L895
	.loc 1 199 2424 discriminator 97 view .LVU2060
	leal	-128(%rax), %ecx
	.loc 1 199 2387 discriminator 97 view .LVU2061
	movq	16(%rsi), %r14
	shrq	%cl, %r14
.L725:
	.loc 1 199 2486 discriminator 100 view .LVU2062
	cmpq	$62, %r11
	ja	.L896
	.loc 1 199 2522 discriminator 101 view .LVU2063
	movl	$128, %ecx
	subl	%eax, %ecx
	.loc 1 199 2486 discriminator 101 view .LVU2064
	movq	16(%rsi), %r15
	salq	%cl, %r15
	movq	%r15, %rcx
.L726:
	.loc 1 199 2432 discriminator 104 view .LVU2065
	addq	%r14, %rcx
	.loc 1 199 2333 discriminator 104 view .LVU2066
	orq	%rcx, %r8
	.loc 1 199 2587 discriminator 104 view .LVU2067
	cmpq	$63, %r12
	ja	.L897
	.loc 1 199 2620 discriminator 105 view .LVU2068
	leal	-192(%rax), %ecx
	.loc 1 199 2587 discriminator 105 view .LVU2069
	movq	8(%rsi), %r14
	shrq	%cl, %r14
.L727:
	.loc 1 199 2682 discriminator 108 view .LVU2070
	cmpq	$62, %rbp
	ja	.L898
	.loc 1 199 2714 discriminator 109 view .LVU2071
	movl	$192, %ecx
	subl	%eax, %ecx
	.loc 1 199 2682 discriminator 109 view .LVU2072
	movq	8(%rsi), %r15
	salq	%cl, %r15
	movq	%r15, %rcx
.L728:
	.loc 1 199 2628 discriminator 112 view .LVU2073
	addq	%r14, %rcx
	.loc 1 199 2533 discriminator 112 view .LVU2074
	orq	%rcx, %r8
	movq	%r8, -112(%rsp)
	movq	$-256, %r15
	subq	%rdx, %r15
	.loc 1 199 2779 discriminator 112 view .LVU2075
	cmpq	$63, %r15
	ja	.L899
	.loc 1 199 2779 discriminator 113 view .LVU2076
	movq	(%rsi), %r14
	movl	%eax, %ecx
	shrq	%cl, %r14
	movq	%r14, -104(%rsp)
.L729:
	.loc 1 199 2779 discriminator 113 view .LVU2077
	movq	$-193, %r14
	subq	%rdx, %r14
	.loc 1 199 2870 discriminator 116 view .LVU2078
	cmpq	$62, %r14
	ja	.L900
	.loc 1 199 2898 discriminator 117 view .LVU2079
	movl	$256, %ecx
	subl	%eax, %ecx
	.loc 1 199 2870 discriminator 117 view .LVU2080
	movq	(%rsi), %r8
	salq	%cl, %r8
	movq	%r8, %rcx
.L730:
	.loc 1 199 2816 discriminator 120 view .LVU2081
	addq	-104(%rsp), %rcx
	.loc 1 199 2725 discriminator 120 view .LVU2082
	movq	-112(%rsp), %r8
	orq	%rcx, %r8
	.loc 1 199 1927 discriminator 120 view .LVU2083
	movq	%r8, -16(%rsp)
	.loc 1 199 2910 is_stmt 1 discriminator 120 view .LVU2084
	.loc 1 199 2972 is_stmt 0 discriminator 120 view .LVU2085
	cmpq	$63, %rax
	ja	.L901
	.loc 1 199 2972 discriminator 121 view .LVU2086
	movq	40(%rsi), %r8
	movl	%eax, %ecx
	shrq	%cl, %r8
.L731:
	.loc 1 199 3073 discriminator 124 view .LVU2087
	cmpq	$62, %r9
	ja	.L902
	.loc 1 199 3073 discriminator 125 view .LVU2088
	movq	40(%rsi), %r9
	movl	%edx, %ecx
	salq	%cl, %r9
.L732:
	.loc 1 199 3023 discriminator 128 view .LVU2089
	addq	%r8, %r9
	.loc 1 199 3178 discriminator 128 view .LVU2090
	cmpq	$63, %r10
	ja	.L903
	.loc 1 199 3219 discriminator 129 view .LVU2091
	leal	-64(%rax), %ecx
	.loc 1 199 3178 discriminator 129 view .LVU2092
	movq	32(%rsi), %r8
	shrq	%cl, %r8
.L733:
	.loc 1 199 3278 discriminator 132 view .LVU2093
	cmpq	$62, %r13
	ja	.L904
	.loc 1 199 3317 discriminator 133 view .LVU2094
	movl	$64, %ecx
	subl	%eax, %ecx
	.loc 1 199 3278 discriminator 133 view .LVU2095
	movq	32(%rsi), %r10
	salq	%cl, %r10
	movq	%r10, %rcx
.L734:
	.loc 1 199 3226 discriminator 136 view .LVU2096
	addq	%rcx, %r8
	.loc 1 199 3126 discriminator 136 view .LVU2097
	orq	%r9, %r8
	.loc 1 199 3382 discriminator 136 view .LVU2098
	cmpq	$63, %rbx
	ja	.L905
	.loc 1 199 3419 discriminator 137 view .LVU2099
	leal	-128(%rax), %ecx
	.loc 1 199 3382 discriminator 137 view .LVU2100
	movq	24(%rsi), %r10
	shrq	%cl, %r10
.L735:
	.loc 1 199 3481 discriminator 140 view .LVU2101
	cmpq	$62, %r11
	ja	.L906
	.loc 1 199 3517 discriminator 141 view .LVU2102
	movl	$128, %ecx
	subl	%eax, %ecx
	.loc 1 199 3481 discriminator 141 view .LVU2103
	movq	24(%rsi), %rbx
	salq	%cl, %rbx
	movq	%rbx, %rcx
.L736:
	.loc 1 199 3427 discriminator 144 view .LVU2104
	addq	%rcx, %r10
	.loc 1 199 3328 discriminator 144 view .LVU2105
	orq	%r8, %r10
	.loc 1 199 3582 discriminator 144 view .LVU2106
	cmpq	$63, %r12
	ja	.L907
	.loc 1 199 3615 discriminator 145 view .LVU2107
	leal	-192(%rax), %ecx
	.loc 1 199 3582 discriminator 145 view .LVU2108
	movq	16(%rsi), %r9
	shrq	%cl, %r9
.L737:
	.loc 1 199 3677 discriminator 148 view .LVU2109
	cmpq	$62, %rbp
	ja	.L908
	.loc 1 199 3709 discriminator 149 view .LVU2110
	movl	$192, %ecx
	subl	%eax, %ecx
	.loc 1 199 3677 discriminator 149 view .LVU2111
	movq	16(%rsi), %r8
	salq	%cl, %r8
.L738:
	.loc 1 199 3623 discriminator 152 view .LVU2112
	addq	%r8, %r9
	.loc 1 199 3528 discriminator 152 view .LVU2113
	orq	%r9, %r10
	movq	%r10, %r8
	.loc 1 199 3774 discriminator 152 view .LVU2114
	cmpq	$63, %r15
	ja	.L909
	.loc 1 199 3774 discriminator 153 view .LVU2115
	movq	8(%rsi), %r9
	movl	%eax, %ecx
	shrq	%cl, %r9
.L739:
	.loc 1 199 3865 discriminator 156 view .LVU2116
	cmpq	$62, %r14
	ja	.L910
	.loc 1 199 3893 discriminator 157 view .LVU2117
	movl	$256, %ecx
	subl	%eax, %ecx
	.loc 1 199 3865 discriminator 157 view .LVU2118
	movq	8(%rsi), %rbx
	salq	%cl, %rbx
	movq	%rbx, %rcx
.L740:
	.loc 1 199 3811 discriminator 160 view .LVU2119
	addq	%rcx, %r9
	.loc 1 199 3720 discriminator 160 view .LVU2120
	orq	%r9, %r8
	.loc 1 199 3958 discriminator 160 view .LVU2121
	movq	$-320, %rcx
	subq	%rdx, %rcx
	cmpq	$63, %rcx
	ja	.L911
	.loc 1 199 3983 discriminator 161 view .LVU2122
	leal	-320(%rax), %ecx
	.loc 1 199 3958 discriminator 161 view .LVU2123
	movq	(%rsi), %r9
	shrq	%cl, %r9
.L741:
	.loc 1 199 4045 discriminator 164 view .LVU2124
	movq	$-257, %rcx
	subq	%rdx, %rcx
	cmpq	$62, %rcx
	ja	.L912
	.loc 1 199 4069 discriminator 165 view .LVU2125
	movl	$320, %ecx
	subl	%eax, %ecx
	.loc 1 199 4045 discriminator 165 view .LVU2126
	movq	(%rsi), %rax
.LVL61:
	.loc 1 199 4045 discriminator 165 view .LVU2127
	salq	%cl, %rax
.L742:
	.loc 1 199 3991 discriminator 168 view .LVU2128
	addq	%rax, %r9
	.loc 1 199 3904 discriminator 168 view .LVU2129
	orq	%r8, %r9
	.loc 1 199 2922 discriminator 168 view .LVU2130
	movq	%r9, -8(%rsp)
	.loc 1 199 4080 is_stmt 1 discriminator 168 view .LVU2131
	.loc 1 200 9 discriminator 168 view .LVU2132
	.loc 1 200 16 is_stmt 0 discriminator 168 view .LVU2133
	leaq	384(%rdx), %rax
.LVL62:
	.loc 1 201 9 is_stmt 1 discriminator 168 view .LVU2134
	.loc 1 201 71 is_stmt 0 discriminator 168 view .LVU2135
	cmpq	$63, %rax
	ja	.L913
	.loc 1 201 71 discriminator 1 view .LVU2136
	movq	40(%rsi), %r8
	movl	%eax, %ecx
	salq	%cl, %r8
.L743:
	.loc 1 201 106 discriminator 4 view .LVU2137
	leaq	447(%rdx), %r9
	.loc 1 201 154 discriminator 4 view .LVU2138
	cmpq	$62, %r9
	ja	.L914
	.loc 1 201 171 discriminator 5 view .LVU2139
	movl	%eax, %ecx
	negl	%ecx
	.loc 1 201 154 discriminator 5 view .LVU2140
	movq	40(%rsi), %rbx
	shrq	%cl, %rbx
	movq	%rbx, %rcx
.L744:
	.loc 1 201 104 discriminator 8 view .LVU2141
	addq	%rcx, %r8
	.loc 1 201 21 discriminator 8 view .LVU2142
	movq	%r8, -56(%rsp)
	.loc 1 201 190 is_stmt 1 discriminator 8 view .LVU2143
	.loc 1 201 252 is_stmt 0 discriminator 8 view .LVU2144
	cmpq	$63, %rax
	ja	.L915
	.loc 1 201 252 discriminator 9 view .LVU2145
	movq	32(%rsi), %r8
	movl	%eax, %ecx
	salq	%cl, %r8
.L745:
	.loc 1 201 339 discriminator 12 view .LVU2146
	cmpq	$62, %r9
	ja	.L916
	.loc 1 201 360 discriminator 13 view .LVU2147
	movl	%eax, %ecx
	negl	%ecx
	.loc 1 201 339 discriminator 13 view .LVU2148
	movq	32(%rsi), %rbx
	shrq	%cl, %rbx
	movq	%rbx, %rcx
.L746:
	.loc 1 201 289 discriminator 16 view .LVU2149
	addq	%rcx, %r8
	.loc 1 201 381 discriminator 16 view .LVU2150
	leaq	320(%rdx), %r11
	.loc 1 201 430 discriminator 16 view .LVU2151
	cmpq	$63, %r11
	ja	.L917
	.loc 1 201 457 discriminator 17 view .LVU2152
	leal	-64(%rax), %ecx
	.loc 1 201 430 discriminator 17 view .LVU2153
	movq	40(%rsi), %rbx
	salq	%cl, %rbx
.L747:
	.loc 1 201 466 discriminator 20 view .LVU2154
	leaq	383(%rdx), %r10
	.loc 1 201 516 discriminator 20 view .LVU2155
	cmpq	$62, %r10
	ja	.L918
	.loc 1 201 541 discriminator 21 view .LVU2156
	movl	$64, %ecx
	subl	%eax, %ecx
	.loc 1 201 516 discriminator 21 view .LVU2157
	movq	40(%rsi), %r15
	shrq	%cl, %r15
	movq	%r15, %rcx
.L748:
	.loc 1 201 464 discriminator 24 view .LVU2158
	addq	%rcx, %rbx
	.loc 1 201 378 discriminator 24 view .LVU2159
	orq	%rbx, %r8
	.loc 1 201 202 discriminator 24 view .LVU2160
	movq	%r8, -64(%rsp)
	.loc 1 201 553 is_stmt 1 discriminator 24 view .LVU2161
	.loc 1 201 615 is_stmt 0 discriminator 24 view .LVU2162
	cmpq	$63, %rax
	ja	.L919
	.loc 1 201 615 discriminator 25 view .LVU2163
	movq	24(%rsi), %r8
	movl	%eax, %ecx
	salq	%cl, %r8
.L749:
	.loc 1 201 706 discriminator 28 view .LVU2164
	cmpq	$62, %r9
	ja	.L920
	.loc 1 201 731 discriminator 29 view .LVU2165
	movl	%eax, %ecx
	negl	%ecx
	.loc 1 201 706 discriminator 29 view .LVU2166
	movq	24(%rsi), %rbx
	shrq	%cl, %rbx
	movq	%rbx, %rcx
.L750:
	.loc 1 201 656 discriminator 32 view .LVU2167
	addq	%rcx, %r8
	.loc 1 201 801 discriminator 32 view .LVU2168
	cmpq	$63, %r11
	ja	.L921
	.loc 1 201 832 discriminator 33 view .LVU2169
	leal	-64(%rax), %ecx
	.loc 1 201 801 discriminator 33 view .LVU2170
	movq	32(%rsi), %rbx
	salq	%cl, %rbx
.L751:
	.loc 1 201 891 discriminator 36 view .LVU2171
	cmpq	$62, %r10
	ja	.L922
	.loc 1 201 920 discriminator 37 view .LVU2172
	movl	$64, %ecx
	subl	%eax, %ecx
	.loc 1 201 891 discriminator 37 view .LVU2173
	movq	32(%rsi), %r14
	shrq	%cl, %r14
	movq	%r14, %rcx
.L752:
	.loc 1 201 839 discriminator 40 view .LVU2174
	addq	%rcx, %rbx
	.loc 1 201 749 discriminator 40 view .LVU2175
	orq	%rbx, %r8
	movq	%r8, %r12
	.loc 1 201 934 discriminator 40 view .LVU2176
	leaq	256(%rdx), %rbp
	.loc 1 201 985 discriminator 40 view .LVU2177
	cmpq	$63, %rbp
	ja	.L923
	.loc 1 201 1012 discriminator 41 view .LVU2178
	leal	-128(%rax), %ecx
	.loc 1 201 985 discriminator 41 view .LVU2179
	movq	40(%rsi), %r8
	salq	%cl, %r8
.L753:
	.loc 1 201 1022 discriminator 44 view .LVU2180
	leaq	319(%rdx), %rbx
	.loc 1 201 1074 discriminator 44 view .LVU2181
	cmpq	$62, %rbx
	ja	.L924
	.loc 1 201 1100 discriminator 45 view .LVU2182
	movl	$128, %ecx
	subl	%eax, %ecx
	.loc 1 201 1074 discriminator 45 view .LVU2183
	movq	40(%rsi), %r15
	shrq	%cl, %r15
	movq	%r15, %rcx
.L754:
	.loc 1 201 1020 discriminator 48 view .LVU2184
	addq	%rcx, %r8
	.loc 1 201 931 discriminator 48 view .LVU2185
	orq	%r12, %r8
	.loc 1 201 565 discriminator 48 view .LVU2186
	movq	%r8, -72(%rsp)
	.loc 1 201 1112 is_stmt 1 discriminator 48 view .LVU2187
	.loc 1 201 1174 is_stmt 0 discriminator 48 view .LVU2188
	cmpq	$63, %rax
	ja	.L925
	.loc 1 201 1174 discriminator 49 view .LVU2189
	movq	16(%rsi), %r8
	movl	%eax, %ecx
	salq	%cl, %r8
.L755:
	.loc 1 201 1269 discriminator 52 view .LVU2190
	cmpq	$62, %r9
	ja	.L926
	.loc 1 201 1298 discriminator 53 view .LVU2191
	movl	%eax, %ecx
	negl	%ecx
	.loc 1 201 1269 discriminator 53 view .LVU2192
	movq	16(%rsi), %r14
	shrq	%cl, %r14
	movq	%r14, %rcx
.L756:
	.loc 1 201 1219 discriminator 56 view .LVU2193
	addq	%rcx, %r8
	.loc 1 201 1368 discriminator 56 view .LVU2194
	cmpq	$63, %r11
	ja	.L927
	.loc 1 201 1403 discriminator 57 view .LVU2195
	leal	-64(%rax), %ecx
	.loc 1 201 1368 discriminator 57 view .LVU2196
	movq	24(%rsi), %r12
	salq	%cl, %r12
.L757:
	.loc 1 201 1462 discriminator 60 view .LVU2197
	cmpq	$62, %r10
	ja	.L928
	.loc 1 201 1495 discriminator 61 view .LVU2198
	movl	$64, %ecx
	subl	%eax, %ecx
	.loc 1 201 1462 discriminator 61 view .LVU2199
	movq	24(%rsi), %r15
	shrq	%cl, %r15
	movq	%r15, %rcx
.L758:
	.loc 1 201 1410 discriminator 64 view .LVU2200
	addq	%rcx, %r12
	.loc 1 201 1316 discriminator 64 view .LVU2201
	orq	%r8, %r12
	.loc 1 201 1560 discriminator 64 view .LVU2202
	cmpq	$63, %rbp
	ja	.L929
	.loc 1 201 1591 discriminator 65 view .LVU2203
	leal	-128(%rax), %ecx
	.loc 1 201 1560 discriminator 65 view .LVU2204
	movq	32(%rsi), %r8
	salq	%cl, %r8
.L759:
	.loc 1 201 1653 discriminator 68 view .LVU2205
	cmpq	$62, %rbx
	ja	.L930
	.loc 1 201 1683 discriminator 69 view .LVU2206
	movl	$128, %ecx
	subl	%eax, %ecx
	.loc 1 201 1653 discriminator 69 view .LVU2207
	movq	32(%rsi), %r14
	shrq	%cl, %r14
	movq	%r14, %rcx
.L760:
	.loc 1 201 1599 discriminator 72 view .LVU2208
	addq	%rcx, %r8
	.loc 1 201 1506 discriminator 72 view .LVU2209
	orq	%r12, %r8
	.loc 1 201 1697 discriminator 72 view .LVU2210
	leaq	192(%rdx), %r13
	.loc 1 201 1748 discriminator 72 view .LVU2211
	cmpq	$63, %r13
	ja	.L931
	.loc 1 201 1775 discriminator 73 view .LVU2212
	leal	-192(%rax), %ecx
	.loc 1 201 1748 discriminator 73 view .LVU2213
	movq	40(%rsi), %r14
	salq	%cl, %r14
.L761:
	.loc 1 201 1785 discriminator 76 view .LVU2214
	leaq	255(%rdx), %r12
	.loc 1 201 1837 discriminator 76 view .LVU2215
	cmpq	$62, %r12
	ja	.L932
	.loc 1 201 1863 discriminator 77 view .LVU2216
	movl	$192, %ecx
	subl	%eax, %ecx
	.loc 1 201 1837 discriminator 77 view .LVU2217
	movq	40(%rsi), %r15
	shrq	%cl, %r15
	movq	%r15, %rcx
.L762:
	.loc 1 201 1783 discriminator 80 view .LVU2218
	addq	%r14, %rcx
	.loc 1 201 1694 discriminator 80 view .LVU2219
	orq	%rcx, %r8
	.loc 1 201 1124 discriminator 80 view .LVU2220
	movq	%r8, -80(%rsp)
	.loc 1 201 1875 is_stmt 1 discriminator 80 view .LVU2221
	.loc 1 201 1937 is_stmt 0 discriminator 80 view .LVU2222
	cmpq	$63, %rax
	ja	.L933
	.loc 1 201 1937 discriminator 81 view .LVU2223
	movq	8(%rsi), %r8
	movl	%eax, %ecx
	salq	%cl, %r8
.L763:
	.loc 1 201 2036 discriminator 84 view .LVU2224
	cmpq	$62, %r9
	ja	.L934
	.loc 1 201 2069 discriminator 85 view .LVU2225
	movl	%eax, %ecx
	negl	%ecx
	.loc 1 201 2036 discriminator 85 view .LVU2226
	movq	8(%rsi), %r15
	shrq	%cl, %r15
	movq	%r15, %rcx
.L764:
	.loc 1 201 1986 discriminator 88 view .LVU2227
	addq	%rcx, %r8
	.loc 1 201 2139 discriminator 88 view .LVU2228
	cmpq	$63, %r11
	ja	.L935
	.loc 1 201 2178 discriminator 89 view .LVU2229
	leal	-64(%rax), %ecx
	.loc 1 201 2139 discriminator 89 view .LVU2230
	movq	16(%rsi), %r14
	salq	%cl, %r14
.L765:
	.loc 1 201 2237 discriminator 92 view .LVU2231
	cmpq	$62, %r10
	ja	.L936
	.loc 1 201 2274 discriminator 93 view .LVU2232
	movl	$64, %ecx
	subl	%eax, %ecx
	.loc 1 201 2237 discriminator 93 view .LVU2233
	movq	16(%rsi), %r15
	shrq	%cl, %r15
	movq	%r15, %rcx
.L766:
	.loc 1 201 2185 discriminator 96 view .LVU2234
	addq	%r14, %rcx
	.loc 1 201 2087 discriminator 96 view .LVU2235
	orq	%rcx, %r8
	.loc 1 201 2339 discriminator 96 view .LVU2236
	cmpq	$63, %rbp
	ja	.L937
	.loc 1 201 2374 discriminator 97 view .LVU2237
	leal	-128(%rax), %ecx
	.loc 1 201 2339 discriminator 97 view .LVU2238
	movq	24(%rsi), %r14
	salq	%cl, %r14
.L767:
	.loc 1 201 2436 discriminator 100 view .LVU2239
	cmpq	$62, %rbx
	ja	.L938
	.loc 1 201 2470 discriminator 101 view .LVU2240
	movl	$128, %ecx
	subl	%eax, %ecx
	.loc 1 201 2436 discriminator 101 view .LVU2241
	movq	24(%rsi), %r15
	shrq	%cl, %r15
	movq	%r15, %rcx
.L768:
	.loc 1 201 2382 discriminator 104 view .LVU2242
	addq	%r14, %rcx
	.loc 1 201 2285 discriminator 104 view .LVU2243
	orq	%rcx, %r8
	.loc 1 201 2535 discriminator 104 view .LVU2244
	cmpq	$63, %r13
	ja	.L939
	.loc 1 201 2566 discriminator 105 view .LVU2245
	leal	-192(%rax), %ecx
	.loc 1 201 2535 discriminator 105 view .LVU2246
	movq	32(%rsi), %r14
	salq	%cl, %r14
.L769:
	.loc 1 201 2628 discriminator 108 view .LVU2247
	cmpq	$62, %r12
	ja	.L940
	.loc 1 201 2658 discriminator 109 view .LVU2248
	movl	$192, %ecx
	subl	%eax, %ecx
	.loc 1 201 2628 discriminator 109 view .LVU2249
	movq	32(%rsi), %r15
	shrq	%cl, %r15
	movq	%r15, %rcx
.L770:
	.loc 1 201 2574 discriminator 112 view .LVU2250
	addq	%r14, %rcx
	.loc 1 201 2481 discriminator 112 view .LVU2251
	orq	%rcx, %r8
	movq	%r8, -112(%rsp)
	.loc 1 201 2672 discriminator 112 view .LVU2252
	leaq	128(%rdx), %r15
	.loc 1 201 2723 discriminator 112 view .LVU2253
	cmpq	$63, %r15
	ja	.L941
	.loc 1 201 2723 discriminator 113 view .LVU2254
	movq	40(%rsi), %r14
	movl	%eax, %ecx
	salq	%cl, %r14
	movq	%r14, -104(%rsp)
.L771:
	.loc 1 201 2760 discriminator 116 view .LVU2255
	leaq	191(%rdx), %r14
	.loc 1 201 2812 discriminator 116 view .LVU2256
	cmpq	$62, %r14
	ja	.L942
	.loc 1 201 2838 discriminator 117 view .LVU2257
	movl	$256, %ecx
	subl	%eax, %ecx
	.loc 1 201 2812 discriminator 117 view .LVU2258
	movq	40(%rsi), %r8
	shrq	%cl, %r8
	movq	%r8, %rcx
.L772:
	.loc 1 201 2758 discriminator 120 view .LVU2259
	addq	-104(%rsp), %rcx
	.loc 1 201 2669 discriminator 120 view .LVU2260
	movq	-112(%rsp), %r8
	orq	%rcx, %r8
	.loc 1 201 1887 discriminator 120 view .LVU2261
	movq	%r8, -88(%rsp)
	.loc 1 201 2850 is_stmt 1 discriminator 120 view .LVU2262
	.loc 1 201 2912 is_stmt 0 discriminator 120 view .LVU2263
	cmpq	$63, %rax
	ja	.L943
	.loc 1 201 2912 discriminator 121 view .LVU2264
	movq	(%rsi), %r8
	movl	%eax, %ecx
	salq	%cl, %r8
.L773:
	.loc 1 201 3011 discriminator 124 view .LVU2265
	cmpq	$62, %r9
	ja	.L944
	.loc 1 201 3044 discriminator 125 view .LVU2266
	movl	%eax, %ecx
	negl	%ecx
	.loc 1 201 3011 discriminator 125 view .LVU2267
	movq	(%rsi), %r9
	shrq	%cl, %r9
.L774:
	.loc 1 201 2961 discriminator 128 view .LVU2268
	addq	%r8, %r9
	.loc 1 201 3114 discriminator 128 view .LVU2269
	cmpq	$63, %r11
	ja	.L945
	.loc 1 201 3153 discriminator 129 view .LVU2270
	leal	-64(%rax), %ecx
	.loc 1 201 3114 discriminator 129 view .LVU2271
	movq	8(%rsi), %r8
	salq	%cl, %r8
.L775:
	.loc 1 201 3212 discriminator 132 view .LVU2272
	cmpq	$62, %r10
	ja	.L946
	.loc 1 201 3249 discriminator 133 view .LVU2273
	movl	$64, %ecx
	subl	%eax, %ecx
	.loc 1 201 3212 discriminator 133 view .LVU2274
	movq	8(%rsi), %r10
	shrq	%cl, %r10
	movq	%r10, %rcx
.L776:
	.loc 1 201 3160 discriminator 136 view .LVU2275
	addq	%rcx, %r8
	.loc 1 201 3062 discriminator 136 view .LVU2276
	movq	%r9, %r10
	orq	%r8, %r10
	.loc 1 201 3314 discriminator 136 view .LVU2277
	cmpq	$63, %rbp
	ja	.L947
	.loc 1 201 3349 discriminator 137 view .LVU2278
	leal	-128(%rax), %ecx
	.loc 1 201 3314 discriminator 137 view .LVU2279
	movq	16(%rsi), %r9
	salq	%cl, %r9
.L777:
	.loc 1 201 3411 discriminator 140 view .LVU2280
	cmpq	$62, %rbx
	ja	.L948
	.loc 1 201 3445 discriminator 141 view .LVU2281
	movl	$128, %ecx
	subl	%eax, %ecx
	.loc 1 201 3411 discriminator 141 view .LVU2282
	movq	16(%rsi), %r8
	shrq	%cl, %r8
.L778:
	.loc 1 201 3357 discriminator 144 view .LVU2283
	addq	%r9, %r8
	.loc 1 201 3260 discriminator 144 view .LVU2284
	orq	%r10, %r8
	.loc 1 201 3510 discriminator 144 view .LVU2285
	cmpq	$63, %r13
	ja	.L949
	.loc 1 201 3541 discriminator 145 view .LVU2286
	leal	-192(%rax), %ecx
	.loc 1 201 3510 discriminator 145 view .LVU2287
	movq	24(%rsi), %r9
	salq	%cl, %r9
.L779:
	.loc 1 201 3603 discriminator 148 view .LVU2288
	cmpq	$62, %r12
	ja	.L950
	.loc 1 201 3633 discriminator 149 view .LVU2289
	movl	$192, %ecx
	subl	%eax, %ecx
	.loc 1 201 3603 discriminator 149 view .LVU2290
	movq	24(%rsi), %rbx
	shrq	%cl, %rbx
	movq	%rbx, %rcx
.L780:
	.loc 1 201 3549 discriminator 152 view .LVU2291
	addq	%rcx, %r9
	.loc 1 201 3456 discriminator 152 view .LVU2292
	orq	%r9, %r8
	.loc 1 201 3698 discriminator 152 view .LVU2293
	cmpq	$63, %r15
	ja	.L951
	.loc 1 201 3698 discriminator 153 view .LVU2294
	movq	32(%rsi), %r9
	movl	%eax, %ecx
	salq	%cl, %r9
.L781:
	.loc 1 201 3787 discriminator 156 view .LVU2295
	cmpq	$62, %r14
	ja	.L952
	.loc 1 201 3813 discriminator 157 view .LVU2296
	movl	$256, %ecx
	subl	%eax, %ecx
	.loc 1 201 3787 discriminator 157 view .LVU2297
	movq	32(%rsi), %rbx
	shrq	%cl, %rbx
	movq	%rbx, %rcx
.L782:
	.loc 1 201 3733 discriminator 160 view .LVU2298
	addq	%rcx, %r9
	.loc 1 201 3644 discriminator 160 view .LVU2299
	orq	%r9, %r8
	.loc 1 201 3878 discriminator 160 view .LVU2300
	cmpq	$-64, %rdx
	jb	.L953
	.loc 1 201 3901 discriminator 161 view .LVU2301
	leal	-320(%rax), %ecx
	.loc 1 201 3878 discriminator 161 view .LVU2302
	movq	40(%rsi), %r9
	salq	%cl, %r9
.L783:
	.loc 1 201 3911 discriminator 164 view .LVU2303
	addq	$127, %rdx
	.loc 1 201 3963 discriminator 164 view .LVU2304
	cmpq	$62, %rdx
	ja	.L954
	.loc 1 201 3970 discriminator 165 view .LVU2305
	movq	40(%rsi), %rdx
	.loc 1 201 3985 discriminator 165 view .LVU2306
	movl	$320, %ecx
	subl	%eax, %ecx
	.loc 1 201 3963 discriminator 165 view .LVU2307
	movq	%rdx, %rax
.LVL63:
	.loc 1 201 3963 discriminator 165 view .LVU2308
	shrq	%cl, %rax
.L784:
	.loc 1 201 3909 discriminator 168 view .LVU2309
	addq	%rax, %r9
	.loc 1 201 3824 discriminator 168 view .LVU2310
	orq	%r9, %r8
	.loc 1 201 2862 discriminator 168 view .LVU2311
	movq	%r8, -96(%rsp)
	.loc 1 201 3996 is_stmt 1 discriminator 168 view .LVU2312
	jmp	.L785
.LVL64:
.L871:
	.loc 1 199 71 is_stmt 0 view .LVU2313
	movl	$0, %r8d
	jmp	.L701
.L872:
	.loc 1 199 156 view .LVU2314
	movl	$0, %ecx
	jmp	.L702
.L873:
	.loc 1 199 256 view .LVU2315
	movl	$0, %r8d
	jmp	.L703
.L874:
	.loc 1 199 345 view .LVU2316
	movl	$0, %ecx
	jmp	.L704
.L875:
	.loc 1 199 438 view .LVU2317
	movl	$0, %r11d
	jmp	.L705
.L876:
	.loc 1 199 526 view .LVU2318
	movl	$0, %ecx
	jmp	.L706
.L877:
	.loc 1 199 627 view .LVU2319
	movl	$0, %r11d
	jmp	.L707
.L878:
	.loc 1 199 720 view .LVU2320
	movl	$0, %ecx
	jmp	.L708
.L879:
	.loc 1 199 817 view .LVU2321
	movl	$0, %r8d
	jmp	.L709
.L880:
	.loc 1 199 909 view .LVU2322
	movl	$0, %ecx
	jmp	.L710
.L881:
	.loc 1 199 1005 view .LVU2323
	movl	$0, %ebp
	jmp	.L711
.L882:
	.loc 1 199 1096 view .LVU2324
	movl	$0, %ecx
	jmp	.L712
.L883:
	.loc 1 199 1198 view .LVU2325
	movl	$0, %r8d
	jmp	.L713
.L884:
	.loc 1 199 1295 view .LVU2326
	movl	$0, %ecx
	jmp	.L714
.L885:
	.loc 1 199 1396 view .LVU2327
	movl	$0, %ebp
	jmp	.L715
.L886:
	.loc 1 199 1492 view .LVU2328
	movl	$0, %ecx
	jmp	.L716
.L887:
	.loc 1 199 1592 view .LVU2329
	movl	$0, %r8d
	jmp	.L717
.L888:
	.loc 1 199 1687 view .LVU2330
	movl	$0, %ecx
	jmp	.L718
.L889:
	.loc 1 199 1784 view .LVU2331
	movl	$0, %r14d
	jmp	.L719
.L890:
	.loc 1 199 1875 view .LVU2332
	movl	$0, %ecx
	jmp	.L720
.L891:
	.loc 1 199 1977 view .LVU2333
	movl	$0, %r8d
	jmp	.L721
.L892:
	.loc 1 199 2078 view .LVU2334
	movl	$0, %ecx
	jmp	.L722
.L893:
	.loc 1 199 2183 view .LVU2335
	movl	$0, %r14d
	jmp	.L723
.L894:
	.loc 1 199 2283 view .LVU2336
	movl	$0, %ecx
	jmp	.L724
.L895:
	.loc 1 199 2387 view .LVU2337
	movl	$0, %r14d
	jmp	.L725
.L896:
	.loc 1 199 2486 view .LVU2338
	movl	$0, %ecx
	jmp	.L726
.L897:
	.loc 1 199 2587 view .LVU2339
	movl	$0, %r14d
	jmp	.L727
.L898:
	.loc 1 199 2682 view .LVU2340
	movl	$0, %ecx
	jmp	.L728
.L899:
	.loc 1 199 2779 view .LVU2341
	movq	$0, -104(%rsp)
	jmp	.L729
.L900:
	.loc 1 199 2870 view .LVU2342
	movl	$0, %ecx
	jmp	.L730
.L901:
	.loc 1 199 2972 view .LVU2343
	movl	$0, %r8d
	jmp	.L731
.L902:
	.loc 1 199 3073 view .LVU2344
	movl	$0, %r9d
	jmp	.L732
.L903:
	.loc 1 199 3178 view .LVU2345
	movl	$0, %r8d
	jmp	.L733
.L904:
	.loc 1 199 3278 view .LVU2346
	movl	$0, %ecx
	jmp	.L734
.L905:
	.loc 1 199 3382 view .LVU2347
	movl	$0, %r10d
	jmp	.L735
.L906:
	.loc 1 199 3481 view .LVU2348
	movl	$0, %ecx
	jmp	.L736
.L907:
	.loc 1 199 3582 view .LVU2349
	movl	$0, %r9d
	jmp	.L737
.L908:
	.loc 1 199 3677 view .LVU2350
	movl	$0, %r8d
	jmp	.L738
.L909:
	.loc 1 199 3774 view .LVU2351
	movl	$0, %r9d
	jmp	.L739
.L910:
	.loc 1 199 3865 view .LVU2352
	movl	$0, %ecx
	jmp	.L740
.L911:
	.loc 1 199 3958 view .LVU2353
	movl	$0, %r9d
	jmp	.L741
.L912:
	.loc 1 199 4045 view .LVU2354
	movl	$0, %eax
.LVL65:
	.loc 1 199 4045 view .LVU2355
	jmp	.L742
.LVL66:
.L913:
	.loc 1 201 71 view .LVU2356
	movl	$0, %r8d
	jmp	.L743
.L914:
	.loc 1 201 154 view .LVU2357
	movl	$0, %ecx
	jmp	.L744
.L915:
	.loc 1 201 252 view .LVU2358
	movl	$0, %r8d
	jmp	.L745
.L916:
	.loc 1 201 339 view .LVU2359
	movl	$0, %ecx
	jmp	.L746
.L917:
	.loc 1 201 430 view .LVU2360
	movl	$0, %ebx
	jmp	.L747
.L918:
	.loc 1 201 516 view .LVU2361
	movl	$0, %ecx
	jmp	.L748
.L919:
	.loc 1 201 615 view .LVU2362
	movl	$0, %r8d
	jmp	.L749
.L920:
	.loc 1 201 706 view .LVU2363
	movl	$0, %ecx
	jmp	.L750
.L921:
	.loc 1 201 801 view .LVU2364
	movl	$0, %ebx
	jmp	.L751
.L922:
	.loc 1 201 891 view .LVU2365
	movl	$0, %ecx
	jmp	.L752
.L923:
	.loc 1 201 985 view .LVU2366
	movl	$0, %r8d
	jmp	.L753
.L924:
	.loc 1 201 1074 view .LVU2367
	movl	$0, %ecx
	jmp	.L754
.L925:
	.loc 1 201 1174 view .LVU2368
	movl	$0, %r8d
	jmp	.L755
.L926:
	.loc 1 201 1269 view .LVU2369
	movl	$0, %ecx
	jmp	.L756
.L927:
	.loc 1 201 1368 view .LVU2370
	movl	$0, %r12d
	jmp	.L757
.L928:
	.loc 1 201 1462 view .LVU2371
	movl	$0, %ecx
	jmp	.L758
.L929:
	.loc 1 201 1560 view .LVU2372
	movl	$0, %r8d
	jmp	.L759
.L930:
	.loc 1 201 1653 view .LVU2373
	movl	$0, %ecx
	jmp	.L760
.L931:
	.loc 1 201 1748 view .LVU2374
	movl	$0, %r14d
	jmp	.L761
.L932:
	.loc 1 201 1837 view .LVU2375
	movl	$0, %ecx
	jmp	.L762
.L933:
	.loc 1 201 1937 view .LVU2376
	movl	$0, %r8d
	jmp	.L763
.L934:
	.loc 1 201 2036 view .LVU2377
	movl	$0, %ecx
	jmp	.L764
.L935:
	.loc 1 201 2139 view .LVU2378
	movl	$0, %r14d
	jmp	.L765
.L936:
	.loc 1 201 2237 view .LVU2379
	movl	$0, %ecx
	jmp	.L766
.L937:
	.loc 1 201 2339 view .LVU2380
	movl	$0, %r14d
	jmp	.L767
.L938:
	.loc 1 201 2436 view .LVU2381
	movl	$0, %ecx
	jmp	.L768
.L939:
	.loc 1 201 2535 view .LVU2382
	movl	$0, %r14d
	jmp	.L769
.L940:
	.loc 1 201 2628 view .LVU2383
	movl	$0, %ecx
	jmp	.L770
.L941:
	.loc 1 201 2723 view .LVU2384
	movq	$0, -104(%rsp)
	jmp	.L771
.L942:
	.loc 1 201 2812 view .LVU2385
	movl	$0, %ecx
	jmp	.L772
.L943:
	.loc 1 201 2912 view .LVU2386
	movl	$0, %r8d
	jmp	.L773
.L944:
	.loc 1 201 3011 view .LVU2387
	movl	$0, %r9d
	jmp	.L774
.L945:
	.loc 1 201 3114 view .LVU2388
	movl	$0, %r8d
	jmp	.L775
.L946:
	.loc 1 201 3212 view .LVU2389
	movl	$0, %ecx
	jmp	.L776
.L947:
	.loc 1 201 3314 view .LVU2390
	movl	$0, %r9d
	jmp	.L777
.L948:
	.loc 1 201 3411 view .LVU2391
	movl	$0, %r8d
	jmp	.L778
.L949:
	.loc 1 201 3510 view .LVU2392
	movl	$0, %r9d
	jmp	.L779
.L950:
	.loc 1 201 3603 view .LVU2393
	movl	$0, %ecx
	jmp	.L780
.L951:
	.loc 1 201 3698 view .LVU2394
	movl	$0, %r9d
	jmp	.L781
.L952:
	.loc 1 201 3787 view .LVU2395
	movl	$0, %ecx
	jmp	.L782
.L953:
	.loc 1 201 3878 view .LVU2396
	movl	$0, %r9d
	jmp	.L783
.L954:
	.loc 1 201 3963 view .LVU2397
	movl	$0, %eax
.LVL67:
	.loc 1 201 3963 view .LVU2398
	jmp	.L784
.LVL68:
.L955:
	.loc 1 205 71 view .LVU2399
	movl	$0, %eax
.L786:
	.loc 1 205 106 discriminator 4 view .LVU2400
	leaq	63(%rdx), %r10
	.loc 1 205 154 discriminator 4 view .LVU2401
	cmpq	$-63, %rdx
	jb	.L956
	.loc 1 205 171 discriminator 5 view .LVU2402
	movl	%edx, %ecx
	negl	%ecx
	.loc 1 205 154 discriminator 5 view .LVU2403
	movq	40(%rsi), %rbx
	shrq	%cl, %rbx
	movq	%rbx, %rcx
	jmp	.L787
.L956:
	.loc 1 205 154 view .LVU2404
	movl	$0, %ecx
.L787:
	.loc 1 205 104 discriminator 8 view .LVU2405
	addq	%rcx, %rax
	.loc 1 205 21 discriminator 8 view .LVU2406
	movq	%rax, -56(%rsp)
	.loc 1 205 190 is_stmt 1 discriminator 8 view .LVU2407
	.loc 1 205 252 is_stmt 0 discriminator 8 view .LVU2408
	cmpq	$63, %rdx
	ja	.L957
	.loc 1 205 252 discriminator 9 view .LVU2409
	movq	32(%rsi), %rax
	movl	%edx, %ecx
	salq	%cl, %rax
	jmp	.L788
.L957:
	.loc 1 205 252 view .LVU2410
	movl	$0, %eax
.L788:
	.loc 1 205 339 discriminator 12 view .LVU2411
	cmpq	$62, %r10
	ja	.L958
	.loc 1 205 360 discriminator 13 view .LVU2412
	movl	%edx, %ecx
	negl	%ecx
	.loc 1 205 339 discriminator 13 view .LVU2413
	movq	32(%rsi), %rbx
	shrq	%cl, %rbx
	movq	%rbx, %rcx
	jmp	.L789
.L958:
	.loc 1 205 339 view .LVU2414
	movl	$0, %ecx
.L789:
	.loc 1 205 289 discriminator 16 view .LVU2415
	addq	%rcx, %rax
	.loc 1 205 381 discriminator 16 view .LVU2416
	leaq	-64(%rdx), %r9
	.loc 1 205 430 discriminator 16 view .LVU2417
	cmpq	$63, %r9
	ja	.L959
	.loc 1 205 457 discriminator 17 view .LVU2418
	leal	-64(%rdx), %ecx
	.loc 1 205 430 discriminator 17 view .LVU2419
	movq	40(%rsi), %r11
	salq	%cl, %r11
	jmp	.L790
.L959:
	.loc 1 205 430 view .LVU2420
	movl	$0, %r11d
.L790:
	.loc 1 205 466 discriminator 20 view .LVU2421
	leaq	-1(%rdx), %r8
	.loc 1 205 516 discriminator 20 view .LVU2422
	cmpq	$62, %r8
	ja	.L960
	.loc 1 205 541 discriminator 21 view .LVU2423
	movl	$64, %ecx
	subl	%edx, %ecx
	.loc 1 205 516 discriminator 21 view .LVU2424
	movq	40(%rsi), %rbx
	shrq	%cl, %rbx
	movq	%rbx, %rcx
	jmp	.L791
.L960:
	.loc 1 205 516 view .LVU2425
	movl	$0, %ecx
.L791:
	.loc 1 205 464 discriminator 24 view .LVU2426
	addq	%rcx, %r11
	.loc 1 205 378 discriminator 24 view .LVU2427
	orq	%r11, %rax
	.loc 1 205 202 discriminator 24 view .LVU2428
	movq	%rax, -64(%rsp)
	.loc 1 205 553 is_stmt 1 discriminator 24 view .LVU2429
	.loc 1 205 615 is_stmt 0 discriminator 24 view .LVU2430
	cmpq	$63, %rdx
	ja	.L961
	.loc 1 205 615 discriminator 25 view .LVU2431
	movq	24(%rsi), %rax
	movl	%edx, %ecx
	salq	%cl, %rax
	jmp	.L792
.L961:
	.loc 1 205 615 view .LVU2432
	movl	$0, %eax
.L792:
	.loc 1 205 706 discriminator 28 view .LVU2433
	cmpq	$62, %r10
	ja	.L962
	.loc 1 205 731 discriminator 29 view .LVU2434
	movl	%edx, %ecx
	negl	%ecx
	.loc 1 205 706 discriminator 29 view .LVU2435
	movq	24(%rsi), %rbx
	shrq	%cl, %rbx
	movq	%rbx, %rcx
	jmp	.L793
.L962:
	.loc 1 205 706 view .LVU2436
	movl	$0, %ecx
.L793:
	.loc 1 205 656 discriminator 32 view .LVU2437
	addq	%rcx, %rax
	.loc 1 205 801 discriminator 32 view .LVU2438
	cmpq	$63, %r9
	ja	.L963
	.loc 1 205 832 discriminator 33 view .LVU2439
	leal	-64(%rdx), %ecx
	.loc 1 205 801 discriminator 33 view .LVU2440
	movq	32(%rsi), %r11
	salq	%cl, %r11
	jmp	.L794
.L963:
	.loc 1 205 801 view .LVU2441
	movl	$0, %r11d
.L794:
	.loc 1 205 891 discriminator 36 view .LVU2442
	cmpq	$62, %r8
	ja	.L964
	.loc 1 205 920 discriminator 37 view .LVU2443
	movl	$64, %ecx
	subl	%edx, %ecx
	.loc 1 205 891 discriminator 37 view .LVU2444
	movq	32(%rsi), %rbx
	shrq	%cl, %rbx
	movq	%rbx, %rcx
	jmp	.L795
.L964:
	.loc 1 205 891 view .LVU2445
	movl	$0, %ecx
.L795:
	.loc 1 205 839 discriminator 40 view .LVU2446
	addq	%rcx, %r11
	.loc 1 205 749 discriminator 40 view .LVU2447
	orq	%rax, %r11
	.loc 1 205 934 discriminator 40 view .LVU2448
	leaq	-128(%rdx), %r14
	.loc 1 205 985 discriminator 40 view .LVU2449
	cmpq	$63, %r14
	ja	.L965
	.loc 1 205 1012 discriminator 41 view .LVU2450
	leal	-128(%rdx), %ecx
	.loc 1 205 985 discriminator 41 view .LVU2451
	movq	40(%rsi), %rax
	salq	%cl, %rax
	jmp	.L796
.L965:
	.loc 1 205 985 view .LVU2452
	movl	$0, %eax
.L796:
	.loc 1 205 1022 discriminator 44 view .LVU2453
	leaq	-65(%rdx), %r13
	.loc 1 205 1074 discriminator 44 view .LVU2454
	cmpq	$62, %r13
	ja	.L966
	.loc 1 205 1100 discriminator 45 view .LVU2455
	movl	$128, %ecx
	subl	%edx, %ecx
	.loc 1 205 1074 discriminator 45 view .LVU2456
	movq	40(%rsi), %rbx
	shrq	%cl, %rbx
	movq	%rbx, %rcx
	jmp	.L797
.L966:
	.loc 1 205 1074 view .LVU2457
	movl	$0, %ecx
.L797:
	.loc 1 205 1020 discriminator 48 view .LVU2458
	addq	%rcx, %rax
	.loc 1 205 931 discriminator 48 view .LVU2459
	orq	%r11, %rax
	.loc 1 205 565 discriminator 48 view .LVU2460
	movq	%rax, -72(%rsp)
	.loc 1 205 1112 is_stmt 1 discriminator 48 view .LVU2461
	.loc 1 205 1174 is_stmt 0 discriminator 48 view .LVU2462
	cmpq	$63, %rdx
	ja	.L967
	.loc 1 205 1174 discriminator 49 view .LVU2463
	movq	16(%rsi), %r11
	movl	%edx, %ecx
	salq	%cl, %r11
	jmp	.L798
.L967:
	.loc 1 205 1174 view .LVU2464
	movl	$0, %r11d
.L798:
	.loc 1 205 1269 discriminator 52 view .LVU2465
	cmpq	$62, %r10
	ja	.L968
	.loc 1 205 1298 discriminator 53 view .LVU2466
	movl	%edx, %ecx
	negl	%ecx
	.loc 1 205 1269 discriminator 53 view .LVU2467
	movq	16(%rsi), %rax
	shrq	%cl, %rax
	jmp	.L799
.L968:
	.loc 1 205 1269 view .LVU2468
	movl	$0, %eax
.L799:
	.loc 1 205 1219 discriminator 56 view .LVU2469
	addq	%r11, %rax
	.loc 1 205 1368 discriminator 56 view .LVU2470
	cmpq	$63, %r9
	ja	.L969
	.loc 1 205 1403 discriminator 57 view .LVU2471
	leal	-64(%rdx), %ecx
	.loc 1 205 1368 discriminator 57 view .LVU2472
	movq	24(%rsi), %r11
	salq	%cl, %r11
	jmp	.L800
.L969:
	.loc 1 205 1368 view .LVU2473
	movl	$0, %r11d
.L800:
	.loc 1 205 1462 discriminator 60 view .LVU2474
	cmpq	$62, %r8
	ja	.L970
	.loc 1 205 1495 discriminator 61 view .LVU2475
	movl	$64, %ecx
	subl	%edx, %ecx
	.loc 1 205 1462 discriminator 61 view .LVU2476
	movq	24(%rsi), %rbx
	shrq	%cl, %rbx
	movq	%rbx, %rcx
	jmp	.L801
.L970:
	.loc 1 205 1462 view .LVU2477
	movl	$0, %ecx
.L801:
	.loc 1 205 1410 discriminator 64 view .LVU2478
	addq	%rcx, %r11
	.loc 1 205 1316 discriminator 64 view .LVU2479
	orq	%r11, %rax
	.loc 1 205 1560 discriminator 64 view .LVU2480
	cmpq	$63, %r14
	ja	.L971
	.loc 1 205 1591 discriminator 65 view .LVU2481
	leal	-128(%rdx), %ecx
	.loc 1 205 1560 discriminator 65 view .LVU2482
	movq	32(%rsi), %r11
	salq	%cl, %r11
	jmp	.L802
.L971:
	.loc 1 205 1560 view .LVU2483
	movl	$0, %r11d
.L802:
	.loc 1 205 1653 discriminator 68 view .LVU2484
	cmpq	$62, %r13
	ja	.L972
	.loc 1 205 1683 discriminator 69 view .LVU2485
	movl	$128, %ecx
	subl	%edx, %ecx
	.loc 1 205 1653 discriminator 69 view .LVU2486
	movq	32(%rsi), %rbx
	shrq	%cl, %rbx
	movq	%rbx, %rcx
	jmp	.L803
.L972:
	.loc 1 205 1653 view .LVU2487
	movl	$0, %ecx
.L803:
	.loc 1 205 1599 discriminator 72 view .LVU2488
	addq	%rcx, %r11
	.loc 1 205 1506 discriminator 72 view .LVU2489
	orq	%r11, %rax
	.loc 1 205 1697 discriminator 72 view .LVU2490
	leaq	-192(%rdx), %r12
	.loc 1 205 1748 discriminator 72 view .LVU2491
	cmpq	$63, %r12
	ja	.L973
	.loc 1 205 1775 discriminator 73 view .LVU2492
	leal	-192(%rdx), %ecx
	.loc 1 205 1748 discriminator 73 view .LVU2493
	movq	40(%rsi), %r11
	salq	%cl, %r11
	jmp	.L804
.L973:
	.loc 1 205 1748 view .LVU2494
	movl	$0, %r11d
.L804:
	.loc 1 205 1785 discriminator 76 view .LVU2495
	leaq	-129(%rdx), %rbp
	.loc 1 205 1837 discriminator 76 view .LVU2496
	cmpq	$62, %rbp
	ja	.L974
	.loc 1 205 1863 discriminator 77 view .LVU2497
	movl	$192, %ecx
	subl	%edx, %ecx
	.loc 1 205 1837 discriminator 77 view .LVU2498
	movq	40(%rsi), %rbx
	shrq	%cl, %rbx
	movq	%rbx, %rcx
	jmp	.L805
.L974:
	.loc 1 205 1837 view .LVU2499
	movl	$0, %ecx
.L805:
	.loc 1 205 1783 discriminator 80 view .LVU2500
	addq	%r11, %rcx
	.loc 1 205 1694 discriminator 80 view .LVU2501
	orq	%rcx, %rax
	.loc 1 205 1124 discriminator 80 view .LVU2502
	movq	%rax, -80(%rsp)
	.loc 1 205 1875 is_stmt 1 discriminator 80 view .LVU2503
	.loc 1 205 1937 is_stmt 0 discriminator 80 view .LVU2504
	cmpq	$63, %rdx
	ja	.L975
	.loc 1 205 1937 discriminator 81 view .LVU2505
	movq	8(%rsi), %r11
	movl	%edx, %ecx
	salq	%cl, %r11
	jmp	.L806
.L975:
	.loc 1 205 1937 view .LVU2506
	movl	$0, %r11d
.L806:
	.loc 1 205 2036 discriminator 84 view .LVU2507
	cmpq	$62, %r10
	ja	.L976
	.loc 1 205 2069 discriminator 85 view .LVU2508
	movl	%edx, %ecx
	negl	%ecx
	.loc 1 205 2036 discriminator 85 view .LVU2509
	movq	8(%rsi), %rax
	shrq	%cl, %rax
	jmp	.L807
.L976:
	.loc 1 205 2036 view .LVU2510
	movl	$0, %eax
.L807:
	.loc 1 205 1986 discriminator 88 view .LVU2511
	addq	%r11, %rax
	.loc 1 205 2139 discriminator 88 view .LVU2512
	cmpq	$63, %r9
	ja	.L977
	.loc 1 205 2178 discriminator 89 view .LVU2513
	leal	-64(%rdx), %ecx
	.loc 1 205 2139 discriminator 89 view .LVU2514
	movq	16(%rsi), %rbx
	salq	%cl, %rbx
	jmp	.L808
.L977:
	.loc 1 205 2139 view .LVU2515
	movl	$0, %ebx
.L808:
	.loc 1 205 2237 discriminator 92 view .LVU2516
	cmpq	$62, %r8
	ja	.L978
	.loc 1 205 2274 discriminator 93 view .LVU2517
	movl	$64, %ecx
	subl	%edx, %ecx
	.loc 1 205 2237 discriminator 93 view .LVU2518
	movq	16(%rsi), %r15
	shrq	%cl, %r15
	movq	%r15, %rcx
	jmp	.L809
.L978:
	.loc 1 205 2237 view .LVU2519
	movl	$0, %ecx
.L809:
	.loc 1 205 2185 discriminator 96 view .LVU2520
	addq	%rbx, %rcx
	.loc 1 205 2087 discriminator 96 view .LVU2521
	orq	%rcx, %rax
	.loc 1 205 2339 discriminator 96 view .LVU2522
	cmpq	$63, %r14
	ja	.L979
	.loc 1 205 2374 discriminator 97 view .LVU2523
	leal	-128(%rdx), %ecx
	.loc 1 205 2339 discriminator 97 view .LVU2524
	movq	24(%rsi), %r11
	salq	%cl, %r11
	jmp	.L810
.L979:
	.loc 1 205 2339 view .LVU2525
	movl	$0, %r11d
.L810:
	.loc 1 205 2436 discriminator 100 view .LVU2526
	cmpq	$62, %r13
	ja	.L980
	.loc 1 205 2470 discriminator 101 view .LVU2527
	movl	$128, %ecx
	subl	%edx, %ecx
	.loc 1 205 2436 discriminator 101 view .LVU2528
	movq	24(%rsi), %rbx
	shrq	%cl, %rbx
	movq	%rbx, %rcx
	jmp	.L811
.L980:
	.loc 1 205 2436 view .LVU2529
	movl	$0, %ecx
.L811:
	.loc 1 205 2382 discriminator 104 view .LVU2530
	addq	%r11, %rcx
	.loc 1 205 2285 discriminator 104 view .LVU2531
	orq	%rcx, %rax
	.loc 1 205 2535 discriminator 104 view .LVU2532
	cmpq	$63, %r12
	ja	.L981
	.loc 1 205 2566 discriminator 105 view .LVU2533
	leal	-192(%rdx), %ecx
	.loc 1 205 2535 discriminator 105 view .LVU2534
	movq	32(%rsi), %r11
	salq	%cl, %r11
	jmp	.L812
.L981:
	.loc 1 205 2535 view .LVU2535
	movl	$0, %r11d
.L812:
	.loc 1 205 2628 discriminator 108 view .LVU2536
	cmpq	$62, %rbp
	ja	.L982
	.loc 1 205 2658 discriminator 109 view .LVU2537
	movl	$192, %ecx
	subl	%edx, %ecx
	.loc 1 205 2628 discriminator 109 view .LVU2538
	movq	32(%rsi), %rbx
	shrq	%cl, %rbx
	movq	%rbx, %rcx
	jmp	.L813
.L982:
	.loc 1 205 2628 view .LVU2539
	movl	$0, %ecx
.L813:
	.loc 1 205 2574 discriminator 112 view .LVU2540
	addq	%r11, %rcx
	.loc 1 205 2481 discriminator 112 view .LVU2541
	orq	%rcx, %rax
	movq	%rax, -112(%rsp)
	.loc 1 205 2672 discriminator 112 view .LVU2542
	leaq	-256(%rdx), %rbx
	.loc 1 205 2723 discriminator 112 view .LVU2543
	cmpq	$63, %rbx
	ja	.L983
	.loc 1 205 2723 discriminator 113 view .LVU2544
	movq	40(%rsi), %r15
	movl	%edx, %ecx
	salq	%cl, %r15
	jmp	.L814
.L983:
	.loc 1 205 2723 view .LVU2545
	movl	$0, %r15d
.L814:
	.loc 1 205 2760 discriminator 116 view .LVU2546
	leaq	-193(%rdx), %r11
	.loc 1 205 2812 discriminator 116 view .LVU2547
	cmpq	$62, %r11
	ja	.L984
	.loc 1 205 2838 discriminator 117 view .LVU2548
	movl	$256, %ecx
	subl	%edx, %ecx
	.loc 1 205 2812 discriminator 117 view .LVU2549
	movq	40(%rsi), %rax
	shrq	%cl, %rax
	movq	%rax, %rcx
	jmp	.L815
.L984:
	.loc 1 205 2812 view .LVU2550
	movl	$0, %ecx
.L815:
	.loc 1 205 2758 discriminator 120 view .LVU2551
	addq	%r15, %rcx
	.loc 1 205 2669 discriminator 120 view .LVU2552
	movq	-112(%rsp), %rax
	orq	%rcx, %rax
	.loc 1 205 1887 discriminator 120 view .LVU2553
	movq	%rax, -88(%rsp)
	.loc 1 205 2850 is_stmt 1 discriminator 120 view .LVU2554
	.loc 1 205 2912 is_stmt 0 discriminator 120 view .LVU2555
	cmpq	$63, %rdx
	ja	.L985
	.loc 1 205 2912 discriminator 121 view .LVU2556
	movq	(%rsi), %r15
	movl	%edx, %ecx
	salq	%cl, %r15
	jmp	.L816
.L985:
	.loc 1 205 2912 view .LVU2557
	movl	$0, %r15d
.L816:
	.loc 1 205 3011 discriminator 124 view .LVU2558
	cmpq	$62, %r10
	ja	.L986
	.loc 1 205 3044 discriminator 125 view .LVU2559
	movl	%edx, %ecx
	negl	%ecx
	.loc 1 205 3011 discriminator 125 view .LVU2560
	movq	(%rsi), %rax
	shrq	%cl, %rax
	jmp	.L817
.L986:
	.loc 1 205 3011 view .LVU2561
	movl	$0, %eax
.L817:
	.loc 1 205 2961 discriminator 128 view .LVU2562
	leaq	(%r15,%rax), %r10
	.loc 1 205 3114 discriminator 128 view .LVU2563
	cmpq	$63, %r9
	ja	.L987
	.loc 1 205 3153 discriminator 129 view .LVU2564
	leal	-64(%rdx), %ecx
	.loc 1 205 3114 discriminator 129 view .LVU2565
	movq	8(%rsi), %rax
	salq	%cl, %rax
	jmp	.L818
.L987:
	.loc 1 205 3114 view .LVU2566
	movl	$0, %eax
.L818:
	.loc 1 205 3212 discriminator 132 view .LVU2567
	cmpq	$62, %r8
	ja	.L988
	.loc 1 205 3249 discriminator 133 view .LVU2568
	movl	$64, %ecx
	subl	%edx, %ecx
	.loc 1 205 3212 discriminator 133 view .LVU2569
	movq	8(%rsi), %r15
	shrq	%cl, %r15
	movq	%r15, %rcx
	jmp	.L819
.L988:
	.loc 1 205 3212 view .LVU2570
	movl	$0, %ecx
.L819:
	.loc 1 205 3160 discriminator 136 view .LVU2571
	addq	%rcx, %rax
	.loc 1 205 3062 discriminator 136 view .LVU2572
	orq	%r10, %rax
	.loc 1 205 3314 discriminator 136 view .LVU2573
	cmpq	$63, %r14
	ja	.L989
	.loc 1 205 3349 discriminator 137 view .LVU2574
	leal	-128(%rdx), %ecx
	.loc 1 205 3314 discriminator 137 view .LVU2575
	movq	16(%rsi), %r8
	salq	%cl, %r8
	jmp	.L820
.L989:
	.loc 1 205 3314 view .LVU2576
	movl	$0, %r8d
.L820:
	.loc 1 205 3411 discriminator 140 view .LVU2577
	cmpq	$62, %r13
	ja	.L990
	.loc 1 205 3445 discriminator 141 view .LVU2578
	movl	$128, %ecx
	subl	%edx, %ecx
	.loc 1 205 3411 discriminator 141 view .LVU2579
	movq	16(%rsi), %r15
	shrq	%cl, %r15
	movq	%r15, %rcx
	jmp	.L821
.L990:
	.loc 1 205 3411 view .LVU2580
	movl	$0, %ecx
.L821:
	.loc 1 205 3357 discriminator 144 view .LVU2581
	addq	%rcx, %r8
	.loc 1 205 3260 discriminator 144 view .LVU2582
	orq	%r8, %rax
	.loc 1 205 3510 discriminator 144 view .LVU2583
	cmpq	$63, %r12
	ja	.L991
	.loc 1 205 3541 discriminator 145 view .LVU2584
	leal	-192(%rdx), %ecx
	.loc 1 205 3510 discriminator 145 view .LVU2585
	movq	24(%rsi), %r8
	salq	%cl, %r8
	jmp	.L822
.L991:
	.loc 1 205 3510 view .LVU2586
	movl	$0, %r8d
.L822:
	.loc 1 205 3603 discriminator 148 view .LVU2587
	cmpq	$62, %rbp
	ja	.L992
	.loc 1 205 3633 discriminator 149 view .LVU2588
	movl	$192, %ecx
	subl	%edx, %ecx
	.loc 1 205 3603 discriminator 149 view .LVU2589
	movq	24(%rsi), %r15
	shrq	%cl, %r15
	movq	%r15, %rcx
	jmp	.L823
.L992:
	.loc 1 205 3603 view .LVU2590
	movl	$0, %ecx
.L823:
	.loc 1 205 3549 discriminator 152 view .LVU2591
	addq	%rcx, %r8
	.loc 1 205 3456 discriminator 152 view .LVU2592
	orq	%r8, %rax
	.loc 1 205 3698 discriminator 152 view .LVU2593
	cmpq	$63, %rbx
	ja	.L993
	.loc 1 205 3698 discriminator 153 view .LVU2594
	movq	32(%rsi), %r8
	movl	%edx, %ecx
	salq	%cl, %r8
	jmp	.L824
.L993:
	.loc 1 205 3698 view .LVU2595
	movl	$0, %r8d
.L824:
	.loc 1 205 3787 discriminator 156 view .LVU2596
	cmpq	$62, %r11
	ja	.L994
	.loc 1 205 3813 discriminator 157 view .LVU2597
	movl	$256, %ecx
	subl	%edx, %ecx
	.loc 1 205 3787 discriminator 157 view .LVU2598
	movq	32(%rsi), %rbx
	shrq	%cl, %rbx
	movq	%rbx, %rcx
	jmp	.L825
.L994:
	.loc 1 205 3787 view .LVU2599
	movl	$0, %ecx
.L825:
	.loc 1 205 3733 discriminator 160 view .LVU2600
	addq	%rcx, %r8
	.loc 1 205 3644 discriminator 160 view .LVU2601
	orq	%r8, %rax
	.loc 1 205 3827 discriminator 160 view .LVU2602
	leaq	-320(%rdx), %rcx
	.loc 1 205 3878 discriminator 160 view .LVU2603
	cmpq	$63, %rcx
	ja	.L995
	.loc 1 205 3901 discriminator 161 view .LVU2604
	leal	-320(%rdx), %ecx
	.loc 1 205 3878 discriminator 161 view .LVU2605
	movq	40(%rsi), %r8
	salq	%cl, %r8
	jmp	.L826
.L995:
	.loc 1 205 3878 view .LVU2606
	movl	$0, %r8d
.L826:
	.loc 1 205 3911 discriminator 164 view .LVU2607
	leaq	-257(%rdx), %rcx
	.loc 1 205 3963 discriminator 164 view .LVU2608
	cmpq	$62, %rcx
	ja	.L996
	.loc 1 205 3985 discriminator 165 view .LVU2609
	movl	$320, %ecx
	subl	%edx, %ecx
	.loc 1 205 3963 discriminator 165 view .LVU2610
	movq	40(%rsi), %rbx
	shrq	%cl, %rbx
	movq	%rbx, %rcx
	jmp	.L827
.L996:
	.loc 1 205 3963 view .LVU2611
	movl	$0, %ecx
.L827:
	.loc 1 205 3909 discriminator 168 view .LVU2612
	addq	%rcx, %r8
	.loc 1 205 3824 discriminator 168 view .LVU2613
	orq	%r8, %rax
	.loc 1 205 2862 discriminator 168 view .LVU2614
	movq	%rax, -96(%rsp)
	.loc 1 205 3996 is_stmt 1 discriminator 168 view .LVU2615
	.loc 1 206 9 discriminator 168 view .LVU2616
	.loc 1 206 16 is_stmt 0 discriminator 168 view .LVU2617
	movl	$384, %eax
	subq	%rdx, %rax
.LVL69:
	.loc 1 207 9 is_stmt 1 discriminator 168 view .LVU2618
	.loc 1 207 71 is_stmt 0 discriminator 168 view .LVU2619
	cmpq	$63, %rax
	ja	.L997
	.loc 1 207 71 discriminator 1 view .LVU2620
	movq	(%rsi), %r8
	movl	%eax, %ecx
	shrq	%cl, %r8
	jmp	.L828
.L997:
	.loc 1 207 71 view .LVU2621
	movl	$0, %r8d
.L828:
	.loc 1 207 108 discriminator 4 view .LVU2622
	movl	$447, %r9d
	subq	%rdx, %r9
	.loc 1 207 156 discriminator 4 view .LVU2623
	cmpq	$62, %r9
	ja	.L998
	.loc 1 207 175 discriminator 5 view .LVU2624
	movl	%eax, %ecx
	negl	%ecx
	.loc 1 207 156 discriminator 5 view .LVU2625
	movq	(%rsi), %rbx
	salq	%cl, %rbx
	movq	%rbx, %rcx
	jmp	.L829
.L998:
	.loc 1 207 156 view .LVU2626
	movl	$0, %ecx
.L829:
	.loc 1 207 106 discriminator 8 view .LVU2627
	addq	%rcx, %r8
	.loc 1 207 21 discriminator 8 view .LVU2628
	movq	%r8, -48(%rsp)
	.loc 1 207 194 is_stmt 1 discriminator 8 view .LVU2629
	.loc 1 207 256 is_stmt 0 discriminator 8 view .LVU2630
	cmpq	$63, %rax
	ja	.L999
	.loc 1 207 256 discriminator 9 view .LVU2631
	movq	8(%rsi), %r8
	movl	%eax, %ecx
	shrq	%cl, %r8
	jmp	.L830
.L999:
	.loc 1 207 256 view .LVU2632
	movl	$0, %r8d
.L830:
	.loc 1 207 345 discriminator 12 view .LVU2633
	cmpq	$62, %r9
	ja	.L1000
	.loc 1 207 368 discriminator 13 view .LVU2634
	movl	%eax, %ecx
	negl	%ecx
	.loc 1 207 345 discriminator 13 view .LVU2635
	movq	8(%rsi), %rbx
	salq	%cl, %rbx
	movq	%rbx, %rcx
	jmp	.L831
.L1000:
	.loc 1 207 345 view .LVU2636
	movl	$0, %ecx
.L831:
	.loc 1 207 295 discriminator 16 view .LVU2637
	leaq	(%r8,%rcx), %rbx
	.loc 1 207 389 discriminator 16 view .LVU2638
	movl	$320, %r11d
	subq	%rdx, %r11
	.loc 1 207 438 discriminator 16 view .LVU2639
	cmpq	$63, %r11
	ja	.L1001
	.loc 1 207 467 discriminator 17 view .LVU2640
	leal	-64(%rax), %ecx
	.loc 1 207 438 discriminator 17 view .LVU2641
	movq	(%rsi), %r8
	shrq	%cl, %r8
	jmp	.L832
.L1001:
	.loc 1 207 438 view .LVU2642
	movl	$0, %r8d
.L832:
	.loc 1 207 476 discriminator 20 view .LVU2643
	movl	$383, %r10d
	subq	%rdx, %r10
	.loc 1 207 526 discriminator 20 view .LVU2644
	cmpq	$62, %r10
	ja	.L1002
	.loc 1 207 553 discriminator 21 view .LVU2645
	movl	$64, %ecx
	subl	%eax, %ecx
	.loc 1 207 526 discriminator 21 view .LVU2646
	movq	(%rsi), %r15
	salq	%cl, %r15
	movq	%r15, %rcx
	jmp	.L833
.L1002:
	.loc 1 207 526 view .LVU2647
	movl	$0, %ecx
.L833:
	.loc 1 207 474 discriminator 24 view .LVU2648
	addq	%rcx, %r8
	.loc 1 207 386 discriminator 24 view .LVU2649
	orq	%rbx, %r8
	.loc 1 207 206 discriminator 24 view .LVU2650
	movq	%r8, -40(%rsp)
	.loc 1 207 565 is_stmt 1 discriminator 24 view .LVU2651
	.loc 1 207 627 is_stmt 0 discriminator 24 view .LVU2652
	cmpq	$63, %rax
	ja	.L1003
	.loc 1 207 627 discriminator 25 view .LVU2653
	movq	16(%rsi), %rbx
	movl	%eax, %ecx
	shrq	%cl, %rbx
	jmp	.L834
.L1003:
	.loc 1 207 627 view .LVU2654
	movl	$0, %ebx
.L834:
	.loc 1 207 720 discriminator 28 view .LVU2655
	cmpq	$62, %r9
	ja	.L1004
	.loc 1 207 747 discriminator 29 view .LVU2656
	movl	%eax, %ecx
	negl	%ecx
	.loc 1 207 720 discriminator 29 view .LVU2657
	movq	16(%rsi), %r15
	salq	%cl, %r15
	movq	%r15, %rcx
	jmp	.L835
.L1004:
	.loc 1 207 720 view .LVU2658
	movl	$0, %ecx
.L835:
	.loc 1 207 670 discriminator 32 view .LVU2659
	addq	%rcx, %rbx
	.loc 1 207 817 discriminator 32 view .LVU2660
	cmpq	$63, %r11
	ja	.L1005
	.loc 1 207 850 discriminator 33 view .LVU2661
	leal	-64(%rax), %ecx
	.loc 1 207 817 discriminator 33 view .LVU2662
	movq	8(%rsi), %r8
	shrq	%cl, %r8
	jmp	.L836
.L1005:
	.loc 1 207 817 view .LVU2663
	movl	$0, %r8d
.L836:
	.loc 1 207 909 discriminator 36 view .LVU2664
	cmpq	$62, %r10
	ja	.L1006
	.loc 1 207 940 discriminator 37 view .LVU2665
	movl	$64, %ecx
	subl	%eax, %ecx
	.loc 1 207 909 discriminator 37 view .LVU2666
	movq	8(%rsi), %r15
	salq	%cl, %r15
	movq	%r15, %rcx
	jmp	.L837
.L1006:
	.loc 1 207 909 view .LVU2667
	movl	$0, %ecx
.L837:
	.loc 1 207 857 discriminator 40 view .LVU2668
	addq	%rcx, %r8
	.loc 1 207 765 discriminator 40 view .LVU2669
	orq	%rbx, %r8
	.loc 1 207 954 discriminator 40 view .LVU2670
	movl	$256, %ebp
	subq	%rdx, %rbp
	.loc 1 207 1005 discriminator 40 view .LVU2671
	cmpq	$63, %rbp
	ja	.L1007
	.loc 1 207 1034 discriminator 41 view .LVU2672
	leal	-128(%rax), %ecx
	.loc 1 207 1005 discriminator 41 view .LVU2673
	movq	(%rsi), %r12
	shrq	%cl, %r12
	jmp	.L838
.L1007:
	.loc 1 207 1005 view .LVU2674
	movl	$0, %r12d
.L838:
	.loc 1 207 1044 discriminator 44 view .LVU2675
	movl	$319, %ebx
	subq	%rdx, %rbx
	.loc 1 207 1096 discriminator 44 view .LVU2676
	cmpq	$62, %rbx
	ja	.L1008
	.loc 1 207 1124 discriminator 45 view .LVU2677
	movl	$128, %ecx
	subl	%eax, %ecx
	.loc 1 207 1096 discriminator 45 view .LVU2678
	movq	(%rsi), %r15
	salq	%cl, %r15
	movq	%r15, %rcx
	jmp	.L839
.L1008:
	.loc 1 207 1096 view .LVU2679
	movl	$0, %ecx
.L839:
	.loc 1 207 1042 discriminator 48 view .LVU2680
	addq	%r12, %rcx
	.loc 1 207 951 discriminator 48 view .LVU2681
	orq	%rcx, %r8
	.loc 1 207 577 discriminator 48 view .LVU2682
	movq	%r8, -32(%rsp)
	.loc 1 207 1136 is_stmt 1 discriminator 48 view .LVU2683
	.loc 1 207 1198 is_stmt 0 discriminator 48 view .LVU2684
	cmpq	$63, %rax
	ja	.L1009
	.loc 1 207 1198 discriminator 49 view .LVU2685
	movq	24(%rsi), %r8
	movl	%eax, %ecx
	shrq	%cl, %r8
	jmp	.L840
.L1009:
	.loc 1 207 1198 view .LVU2686
	movl	$0, %r8d
.L840:
	.loc 1 207 1295 discriminator 52 view .LVU2687
	cmpq	$62, %r9
	ja	.L1010
	.loc 1 207 1326 discriminator 53 view .LVU2688
	movl	%eax, %ecx
	negl	%ecx
	.loc 1 207 1295 discriminator 53 view .LVU2689
	movq	24(%rsi), %r15
	salq	%cl, %r15
	movq	%r15, %rcx
	jmp	.L841
.L1010:
	.loc 1 207 1295 view .LVU2690
	movl	$0, %ecx
.L841:
	.loc 1 207 1245 discriminator 56 view .LVU2691
	addq	%rcx, %r8
	.loc 1 207 1396 discriminator 56 view .LVU2692
	cmpq	$63, %r11
	ja	.L1011
	.loc 1 207 1433 discriminator 57 view .LVU2693
	leal	-64(%rax), %ecx
	.loc 1 207 1396 discriminator 57 view .LVU2694
	movq	16(%rsi), %r12
	shrq	%cl, %r12
	jmp	.L842
.L1011:
	.loc 1 207 1396 view .LVU2695
	movl	$0, %r12d
.L842:
	.loc 1 207 1492 discriminator 60 view .LVU2696
	cmpq	$62, %r10
	ja	.L1012
	.loc 1 207 1527 discriminator 61 view .LVU2697
	movl	$64, %ecx
	subl	%eax, %ecx
	.loc 1 207 1492 discriminator 61 view .LVU2698
	movq	16(%rsi), %r15
	salq	%cl, %r15
	movq	%r15, %rcx
	jmp	.L843
.L1012:
	.loc 1 207 1492 view .LVU2699
	movl	$0, %ecx
.L843:
	.loc 1 207 1440 discriminator 64 view .LVU2700
	addq	%rcx, %r12
	.loc 1 207 1344 discriminator 64 view .LVU2701
	orq	%r8, %r12
	.loc 1 207 1592 discriminator 64 view .LVU2702
	cmpq	$63, %rbp
	ja	.L1013
	.loc 1 207 1625 discriminator 65 view .LVU2703
	leal	-128(%rax), %ecx
	.loc 1 207 1592 discriminator 65 view .LVU2704
	movq	8(%rsi), %r8
	shrq	%cl, %r8
	jmp	.L844
.L1013:
	.loc 1 207 1592 view .LVU2705
	movl	$0, %r8d
.L844:
	.loc 1 207 1687 discriminator 68 view .LVU2706
	cmpq	$62, %rbx
	ja	.L1014
	.loc 1 207 1719 discriminator 69 view .LVU2707
	movl	$128, %ecx
	subl	%eax, %ecx
	.loc 1 207 1687 discriminator 69 view .LVU2708
	movq	8(%rsi), %r15
	salq	%cl, %r15
	movq	%r15, %rcx
	jmp	.L845
.L1014:
	.loc 1 207 1687 view .LVU2709
	movl	$0, %ecx
.L845:
	.loc 1 207 1633 discriminator 72 view .LVU2710
	addq	%rcx, %r8
	.loc 1 207 1538 discriminator 72 view .LVU2711
	orq	%r12, %r8
	.loc 1 207 1733 discriminator 72 view .LVU2712
	movl	$192, %r13d
	subq	%rdx, %r13
	.loc 1 207 1784 discriminator 72 view .LVU2713
	cmpq	$63, %r13
	ja	.L1015
	.loc 1 207 1813 discriminator 73 view .LVU2714
	leal	-192(%rax), %ecx
	.loc 1 207 1784 discriminator 73 view .LVU2715
	movq	(%rsi), %r14
	shrq	%cl, %r14
	jmp	.L846
.L1015:
	.loc 1 207 1784 view .LVU2716
	movl	$0, %r14d
.L846:
	.loc 1 207 1823 discriminator 76 view .LVU2717
	movl	$255, %r12d
	subq	%rdx, %r12
	.loc 1 207 1875 discriminator 76 view .LVU2718
	cmpq	$62, %r12
	ja	.L1016
	.loc 1 207 1903 discriminator 77 view .LVU2719
	movl	$192, %ecx
	subl	%eax, %ecx
	.loc 1 207 1875 discriminator 77 view .LVU2720
	movq	(%rsi), %r15
	salq	%cl, %r15
	movq	%r15, %rcx
	jmp	.L847
.L1016:
	.loc 1 207 1875 view .LVU2721
	movl	$0, %ecx
.L847:
	.loc 1 207 1821 discriminator 80 view .LVU2722
	addq	%r14, %rcx
	.loc 1 207 1730 discriminator 80 view .LVU2723
	orq	%rcx, %r8
	.loc 1 207 1148 discriminator 80 view .LVU2724
	movq	%r8, -24(%rsp)
	.loc 1 207 1915 is_stmt 1 discriminator 80 view .LVU2725
	.loc 1 207 1977 is_stmt 0 discriminator 80 view .LVU2726
	cmpq	$63, %rax
	ja	.L1017
	.loc 1 207 1977 discriminator 81 view .LVU2727
	movq	32(%rsi), %r8
	movl	%eax, %ecx
	shrq	%cl, %r8
	jmp	.L848
.L1017:
	.loc 1 207 1977 view .LVU2728
	movl	$0, %r8d
.L848:
	.loc 1 207 2078 discriminator 84 view .LVU2729
	cmpq	$62, %r9
	ja	.L1018
	.loc 1 207 2113 discriminator 85 view .LVU2730
	movl	%eax, %ecx
	negl	%ecx
	.loc 1 207 2078 discriminator 85 view .LVU2731
	movq	32(%rsi), %r15
	salq	%cl, %r15
	movq	%r15, %rcx
	jmp	.L849
.L1018:
	.loc 1 207 2078 view .LVU2732
	movl	$0, %ecx
.L849:
	.loc 1 207 2028 discriminator 88 view .LVU2733
	addq	%rcx, %r8
	.loc 1 207 2183 discriminator 88 view .LVU2734
	cmpq	$63, %r11
	ja	.L1019
	.loc 1 207 2224 discriminator 89 view .LVU2735
	leal	-64(%rax), %ecx
	.loc 1 207 2183 discriminator 89 view .LVU2736
	movq	24(%rsi), %r14
	shrq	%cl, %r14
	jmp	.L850
.L1019:
	.loc 1 207 2183 view .LVU2737
	movl	$0, %r14d
.L850:
	.loc 1 207 2283 discriminator 92 view .LVU2738
	cmpq	$62, %r10
	ja	.L1020
	.loc 1 207 2322 discriminator 93 view .LVU2739
	movl	$64, %ecx
	subl	%eax, %ecx
	.loc 1 207 2283 discriminator 93 view .LVU2740
	movq	24(%rsi), %r15
	salq	%cl, %r15
	movq	%r15, %rcx
	jmp	.L851
.L1020:
	.loc 1 207 2283 view .LVU2741
	movl	$0, %ecx
.L851:
	.loc 1 207 2231 discriminator 96 view .LVU2742
	addq	%r14, %rcx
	.loc 1 207 2131 discriminator 96 view .LVU2743
	orq	%rcx, %r8
	.loc 1 207 2387 discriminator 96 view .LVU2744
	cmpq	$63, %rbp
	ja	.L1021
	.loc 1 207 2424 discriminator 97 view .LVU2745
	leal	-128(%rax), %ecx
	.loc 1 207 2387 discriminator 97 view .LVU2746
	movq	16(%rsi), %r14
	shrq	%cl, %r14
	jmp	.L852
.L1021:
	.loc 1 207 2387 view .LVU2747
	movl	$0, %r14d
.L852:
	.loc 1 207 2486 discriminator 100 view .LVU2748
	cmpq	$62, %rbx
	ja	.L1022
	.loc 1 207 2522 discriminator 101 view .LVU2749
	movl	$128, %ecx
	subl	%eax, %ecx
	.loc 1 207 2486 discriminator 101 view .LVU2750
	movq	16(%rsi), %r15
	salq	%cl, %r15
	movq	%r15, %rcx
	jmp	.L853
.L1022:
	.loc 1 207 2486 view .LVU2751
	movl	$0, %ecx
.L853:
	.loc 1 207 2432 discriminator 104 view .LVU2752
	addq	%r14, %rcx
	.loc 1 207 2333 discriminator 104 view .LVU2753
	orq	%rcx, %r8
	.loc 1 207 2587 discriminator 104 view .LVU2754
	cmpq	$63, %r13
	ja	.L1023
	.loc 1 207 2620 discriminator 105 view .LVU2755
	leal	-192(%rax), %ecx
	.loc 1 207 2587 discriminator 105 view .LVU2756
	movq	8(%rsi), %r14
	shrq	%cl, %r14
	jmp	.L854
.L1023:
	.loc 1 207 2587 view .LVU2757
	movl	$0, %r14d
.L854:
	.loc 1 207 2682 discriminator 108 view .LVU2758
	cmpq	$62, %r12
	ja	.L1024
	.loc 1 207 2714 discriminator 109 view .LVU2759
	movl	$192, %ecx
	subl	%eax, %ecx
	.loc 1 207 2682 discriminator 109 view .LVU2760
	movq	8(%rsi), %r15
	salq	%cl, %r15
	movq	%r15, %rcx
	jmp	.L855
.L1024:
	.loc 1 207 2682 view .LVU2761
	movl	$0, %ecx
.L855:
	.loc 1 207 2628 discriminator 112 view .LVU2762
	addq	%r14, %rcx
	.loc 1 207 2533 discriminator 112 view .LVU2763
	orq	%rcx, %r8
	movq	%r8, -112(%rsp)
	.loc 1 207 2728 discriminator 112 view .LVU2764
	movl	$128, %r15d
	subq	%rdx, %r15
	.loc 1 207 2779 discriminator 112 view .LVU2765
	cmpq	$63, %r15
	ja	.L1025
	.loc 1 207 2779 discriminator 113 view .LVU2766
	movq	(%rsi), %r14
	movl	%eax, %ecx
	shrq	%cl, %r14
	movq	%r14, -104(%rsp)
	jmp	.L856
.L1025:
	.loc 1 207 2779 view .LVU2767
	movq	$0, -104(%rsp)
.L856:
	.loc 1 207 2818 discriminator 116 view .LVU2768
	movl	$191, %r14d
	subq	%rdx, %r14
	.loc 1 207 2870 discriminator 116 view .LVU2769
	cmpq	$62, %r14
	ja	.L1026
	.loc 1 207 2898 discriminator 117 view .LVU2770
	movl	$256, %ecx
	subl	%eax, %ecx
	.loc 1 207 2870 discriminator 117 view .LVU2771
	movq	(%rsi), %r8
	salq	%cl, %r8
	movq	%r8, %rcx
	jmp	.L857
.L1026:
	.loc 1 207 2870 view .LVU2772
	movl	$0, %ecx
.L857:
	.loc 1 207 2816 discriminator 120 view .LVU2773
	addq	-104(%rsp), %rcx
	.loc 1 207 2725 discriminator 120 view .LVU2774
	movq	-112(%rsp), %r8
	orq	%rcx, %r8
	.loc 1 207 1927 discriminator 120 view .LVU2775
	movq	%r8, -16(%rsp)
	.loc 1 207 2910 is_stmt 1 discriminator 120 view .LVU2776
	.loc 1 207 2972 is_stmt 0 discriminator 120 view .LVU2777
	cmpq	$63, %rax
	ja	.L1027
	.loc 1 207 2972 discriminator 121 view .LVU2778
	movq	40(%rsi), %r8
	movl	%eax, %ecx
	shrq	%cl, %r8
	jmp	.L858
.L1027:
	.loc 1 207 2972 view .LVU2779
	movl	$0, %r8d
.L858:
	.loc 1 207 3073 discriminator 124 view .LVU2780
	cmpq	$62, %r9
	ja	.L1028
	.loc 1 207 3108 discriminator 125 view .LVU2781
	movl	%eax, %ecx
	negl	%ecx
	.loc 1 207 3073 discriminator 125 view .LVU2782
	movq	40(%rsi), %r9
	salq	%cl, %r9
	movq	%r9, %rcx
	jmp	.L859
.L1028:
	.loc 1 207 3073 view .LVU2783
	movl	$0, %ecx
.L859:
	.loc 1 207 3023 discriminator 128 view .LVU2784
	addq	%rcx, %r8
	.loc 1 207 3178 discriminator 128 view .LVU2785
	cmpq	$63, %r11
	ja	.L1029
	.loc 1 207 3219 discriminator 129 view .LVU2786
	leal	-64(%rax), %ecx
	.loc 1 207 3178 discriminator 129 view .LVU2787
	movq	32(%rsi), %r9
	shrq	%cl, %r9
	jmp	.L860
.L1029:
	.loc 1 207 3178 view .LVU2788
	movl	$0, %r9d
.L860:
	.loc 1 207 3278 discriminator 132 view .LVU2789
	cmpq	$62, %r10
	ja	.L1030
	.loc 1 207 3317 discriminator 133 view .LVU2790
	movl	$64, %ecx
	subl	%eax, %ecx
	.loc 1 207 3278 discriminator 133 view .LVU2791
	movq	32(%rsi), %r10
	salq	%cl, %r10
	movq	%r10, %rcx
	jmp	.L861
.L1030:
	.loc 1 207 3278 view .LVU2792
	movl	$0, %ecx
.L861:
	.loc 1 207 3226 discriminator 136 view .LVU2793
	leaq	(%r9,%rcx), %r10
	.loc 1 207 3126 discriminator 136 view .LVU2794
	orq	%r8, %r10
	.loc 1 207 3382 discriminator 136 view .LVU2795
	cmpq	$63, %rbp
	ja	.L1031
	.loc 1 207 3419 discriminator 137 view .LVU2796
	leal	-128(%rax), %ecx
	.loc 1 207 3382 discriminator 137 view .LVU2797
	movq	24(%rsi), %r11
	shrq	%cl, %r11
	jmp	.L862
.L1031:
	.loc 1 207 3382 view .LVU2798
	movl	$0, %r11d
.L862:
	.loc 1 207 3481 discriminator 140 view .LVU2799
	cmpq	$62, %rbx
	ja	.L1032
	.loc 1 207 3517 discriminator 141 view .LVU2800
	movl	$128, %ecx
	subl	%eax, %ecx
	.loc 1 207 3481 discriminator 141 view .LVU2801
	movq	24(%rsi), %rbx
	salq	%cl, %rbx
	movq	%rbx, %rcx
	jmp	.L863
.L1032:
	.loc 1 207 3481 view .LVU2802
	movl	$0, %ecx
.L863:
	.loc 1 207 3427 discriminator 144 view .LVU2803
	addq	%rcx, %r11
	.loc 1 207 3328 discriminator 144 view .LVU2804
	orq	%r10, %r11
	.loc 1 207 3582 discriminator 144 view .LVU2805
	cmpq	$63, %r13
	ja	.L1033
	.loc 1 207 3615 discriminator 145 view .LVU2806
	leal	-192(%rax), %ecx
	.loc 1 207 3582 discriminator 145 view .LVU2807
	movq	16(%rsi), %r10
	shrq	%cl, %r10
	jmp	.L864
.L1033:
	.loc 1 207 3582 view .LVU2808
	movl	$0, %r10d
.L864:
	.loc 1 207 3677 discriminator 148 view .LVU2809
	cmpq	$62, %r12
	ja	.L1034
	.loc 1 207 3709 discriminator 149 view .LVU2810
	movl	$192, %ecx
	subl	%eax, %ecx
	.loc 1 207 3677 discriminator 149 view .LVU2811
	movq	16(%rsi), %rbx
	salq	%cl, %rbx
	movq	%rbx, %rcx
	jmp	.L865
.L1034:
	.loc 1 207 3677 view .LVU2812
	movl	$0, %ecx
.L865:
	.loc 1 207 3623 discriminator 152 view .LVU2813
	addq	%rcx, %r10
	.loc 1 207 3528 discriminator 152 view .LVU2814
	orq	%r11, %r10
	.loc 1 207 3774 discriminator 152 view .LVU2815
	cmpq	$63, %r15
	ja	.L1035
	.loc 1 207 3774 discriminator 153 view .LVU2816
	movq	8(%rsi), %r9
	movl	%eax, %ecx
	shrq	%cl, %r9
	jmp	.L866
.L1035:
	.loc 1 207 3774 view .LVU2817
	movl	$0, %r9d
.L866:
	.loc 1 207 3865 discriminator 156 view .LVU2818
	cmpq	$62, %r14
	ja	.L1036
	.loc 1 207 3893 discriminator 157 view .LVU2819
	movl	$256, %ecx
	subl	%eax, %ecx
	.loc 1 207 3865 discriminator 157 view .LVU2820
	movq	8(%rsi), %rbx
	salq	%cl, %rbx
	movq	%rbx, %rcx
	jmp	.L867
.L1036:
	.loc 1 207 3865 view .LVU2821
	movl	$0, %ecx
.L867:
	.loc 1 207 3811 discriminator 160 view .LVU2822
	addq	%rcx, %r9
	.loc 1 207 3720 discriminator 160 view .LVU2823
	orq	%r9, %r10
	.loc 1 207 3907 discriminator 160 view .LVU2824
	movl	$64, %ecx
	subq	%rdx, %rcx
	.loc 1 207 3958 discriminator 160 view .LVU2825
	cmpq	$63, %rcx
	ja	.L1037
	.loc 1 207 3983 discriminator 161 view .LVU2826
	leal	-320(%rax), %ecx
	.loc 1 207 3958 discriminator 161 view .LVU2827
	movq	(%rsi), %r8
	shrq	%cl, %r8
	jmp	.L868
.L1037:
	.loc 1 207 3958 view .LVU2828
	movl	$0, %r8d
.L868:
	.loc 1 207 3993 discriminator 164 view .LVU2829
	movl	$127, %ecx
	subq	%rdx, %rcx
	.loc 1 207 4045 discriminator 164 view .LVU2830
	cmpq	$62, %rcx
	ja	.L1038
	.loc 1 207 4053 discriminator 165 view .LVU2831
	movq	(%rsi), %rdx
	.loc 1 207 4069 discriminator 165 view .LVU2832
	movl	$320, %ecx
	subl	%eax, %ecx
	.loc 1 207 4045 discriminator 165 view .LVU2833
	movq	%rdx, %rax
.LVL70:
	.loc 1 207 4045 discriminator 165 view .LVU2834
	salq	%cl, %rax
	jmp	.L869
.LVL71:
.L1038:
	.loc 1 207 4045 view .LVU2835
	movl	$0, %eax
.LVL72:
.L869:
	.loc 1 207 3991 discriminator 168 view .LVU2836
	addq	%rax, %r8
	.loc 1 207 3904 discriminator 168 view .LVU2837
	orq	%r10, %r8
	.loc 1 207 2922 discriminator 168 view .LVU2838
	movq	%r8, -8(%rsp)
.L785:
	.loc 1 207 4080 is_stmt 1 discriminator 169 view .LVU2839
	.loc 1 210 5 discriminator 169 view .LVU2840
	.loc 1 210 30 is_stmt 0 discriminator 169 view .LVU2841
	movq	-96(%rsp), %rax
	.loc 1 210 25 discriminator 169 view .LVU2842
	orq	-48(%rsp), %rax
	.loc 1 210 15 discriminator 169 view .LVU2843
	movq	%rax, (%rdi)
	.loc 1 211 30 discriminator 169 view .LVU2844
	movq	-88(%rsp), %rax
	.loc 1 211 25 discriminator 169 view .LVU2845
	orq	-40(%rsp), %rax
	.loc 1 211 15 discriminator 169 view .LVU2846
	movq	%rax, 8(%rdi)
	.loc 1 212 30 discriminator 169 view .LVU2847
	movq	-80(%rsp), %rax
	.loc 1 212 25 discriminator 169 view .LVU2848
	orq	-32(%rsp), %rax
	.loc 1 212 15 discriminator 169 view .LVU2849
	movq	%rax, 16(%rdi)
	.loc 1 213 30 discriminator 169 view .LVU2850
	movq	-72(%rsp), %rax
	.loc 1 213 25 discriminator 169 view .LVU2851
	orq	-24(%rsp), %rax
	.loc 1 213 15 discriminator 169 view .LVU2852
	movq	%rax, 24(%rdi)
	.loc 1 214 30 discriminator 169 view .LVU2853
	movq	-64(%rsp), %rax
	.loc 1 214 25 discriminator 169 view .LVU2854
	orq	-16(%rsp), %rax
	.loc 1 214 15 discriminator 169 view .LVU2855
	movq	%rax, 32(%rdi)
	.loc 1 215 30 discriminator 169 view .LVU2856
	movq	-56(%rsp), %rax
	.loc 1 215 25 discriminator 169 view .LVU2857
	orq	-8(%rsp), %rax
	.loc 1 215 15 discriminator 169 view .LVU2858
	movq	%rax, 40(%rdi)
	.loc 1 217 5 is_stmt 1 discriminator 169 view .LVU2859
	.loc 1 218 1 is_stmt 0 discriminator 169 view .LVU2860
	movq	%rdi, %rax
	popq	%rbx
	.cfi_def_cfa_offset 48
	popq	%rbp
	.cfi_def_cfa_offset 40
	popq	%r12
	.cfi_def_cfa_offset 32
	popq	%r13
	.cfi_def_cfa_offset 24
	popq	%r14
	.cfi_def_cfa_offset 16
	popq	%r15
	.cfi_def_cfa_offset 8
	ret
	.cfi_endproc
.LFE32:
	.size	biguint_lrot, .-biguint_lrot
	.globl	biguint_rev
	.type	biguint_rev, @function
biguint_rev:
.LVL73:
.LFB33:
	.loc 1 229 1 is_stmt 1 view -0
	.cfi_startproc
	.loc 1 229 1 is_stmt 0 view .LVU2862
	pushq	%r15
	.cfi_def_cfa_offset 16
	.cfi_offset 15, -16
	pushq	%r14
	.cfi_def_cfa_offset 24
	.cfi_offset 14, -24
	pushq	%r13
	.cfi_def_cfa_offset 32
	.cfi_offset 13, -32
	pushq	%r12
	.cfi_def_cfa_offset 40
	.cfi_offset 12, -40
	pushq	%rbp
	.cfi_def_cfa_offset 48
	.cfi_offset 6, -48
	pushq	%rbx
	.cfi_def_cfa_offset 56
	.cfi_offset 3, -56
	movq	%rdi, %rax
	.loc 1 230 5 is_stmt 1 view .LVU2863
	.loc 1 230 37 is_stmt 0 view .LVU2864
	movq	40(%rsi), %rdi
.LVL74:
	.loc 1 230 37 view .LVU2865
	rolq	$32, %rdi
	.loc 1 230 14 view .LVU2866
	movq	%rdi, (%rax)
	.loc 1 230 61 is_stmt 1 view .LVU2867
	.loc 1 230 109 is_stmt 0 view .LVU2868
	movq	%rdi, %r8
	shrq	$16, %r8
	movabsq	$281470681808895, %r14
	andq	%r14, %r8
	.loc 1 230 157 view .LVU2869
	salq	$16, %rdi
	movabsq	$-281470681808896, %r13
	andq	%r13, %rdi
	.loc 1 230 118 view .LVU2870
	orq	%rdi, %r8
	.loc 1 230 70 view .LVU2871
	movq	%r8, (%rax)
	.loc 1 230 167 is_stmt 1 view .LVU2872
	.loc 1 230 215 is_stmt 0 view .LVU2873
	movq	%r8, %rdi
	shrq	$8, %rdi
	movabsq	$71777214294589695, %r12
	andq	%r12, %rdi
	.loc 1 230 262 view .LVU2874
	salq	$8, %r8
	movabsq	$-71777214294589696, %rcx
	andq	%rcx, %r8
	.loc 1 230 223 view .LVU2875
	orq	%r8, %rdi
	.loc 1 230 176 view .LVU2876
	movq	%rdi, (%rax)
	.loc 1 230 271 is_stmt 1 view .LVU2877
	.loc 1 230 319 is_stmt 0 view .LVU2878
	movq	%rdi, %r8
	shrq	$4, %r8
	movabsq	$1085102592571150095, %rbx
	andq	%rbx, %r8
	.loc 1 230 366 view .LVU2879
	salq	$4, %rdi
	movabsq	$-1085102592571150096, %rdx
	andq	%rdx, %rdi
	.loc 1 230 327 view .LVU2880
	orq	%rdi, %r8
	.loc 1 230 280 view .LVU2881
	movq	%r8, (%rax)
	.loc 1 230 375 is_stmt 1 view .LVU2882
	.loc 1 230 423 is_stmt 0 view .LVU2883
	movq	%r8, %rdi
	shrq	$2, %rdi
	movabsq	$3689348814741910323, %r11
	andq	%r11, %rdi
	.loc 1 230 470 view .LVU2884
	salq	$2, %r8
	movabsq	$-3689348814741910324, %r9
	andq	%r9, %r8
	.loc 1 230 431 view .LVU2885
	orq	%r8, %rdi
	.loc 1 230 384 view .LVU2886
	movq	%rdi, (%rax)
	.loc 1 230 479 is_stmt 1 view .LVU2887
	.loc 1 230 527 is_stmt 0 view .LVU2888
	movq	%rdi, %r10
	shrq	%r10
	movabsq	$6148914691236517205, %r8
	andq	%r8, %r10
	.loc 1 230 574 view .LVU2889
	leaq	(%rdi,%rdi), %rbp
	movabsq	$-6148914691236517206, %rdi
	andq	%rdi, %rbp
	.loc 1 230 535 view .LVU2890
	orq	%rbp, %r10
	.loc 1 230 488 view .LVU2891
	movq	%r10, (%rax)
	.loc 1 230 582 is_stmt 1 view .LVU2892
	.loc 1 231 5 view .LVU2893
	.loc 1 231 37 is_stmt 0 view .LVU2894
	movq	32(%rsi), %rbp
	rolq	$32, %rbp
	.loc 1 231 14 view .LVU2895
	movq	%rbp, 8(%rax)
	.loc 1 231 61 is_stmt 1 view .LVU2896
	.loc 1 231 109 is_stmt 0 view .LVU2897
	movq	%rbp, %r10
	shrq	$16, %r10
	andq	%r14, %r10
	.loc 1 231 157 view .LVU2898
	salq	$16, %rbp
	andq	%r13, %rbp
	.loc 1 231 118 view .LVU2899
	orq	%rbp, %r10
	.loc 1 231 70 view .LVU2900
	movq	%r10, 8(%rax)
	.loc 1 231 167 is_stmt 1 view .LVU2901
	.loc 1 231 215 is_stmt 0 view .LVU2902
	movq	%r10, %r15
	shrq	$8, %r15
	andq	%r12, %r15
	.loc 1 231 262 view .LVU2903
	salq	$8, %r10
	andq	%rcx, %r10
	.loc 1 231 223 view .LVU2904
	orq	%r10, %r15
	.loc 1 231 176 view .LVU2905
	movq	%r15, 8(%rax)
	.loc 1 231 271 is_stmt 1 view .LVU2906
	.loc 1 231 319 is_stmt 0 view .LVU2907
	movq	%r15, %rbp
	shrq	$4, %rbp
	andq	%rbx, %rbp
	.loc 1 231 366 view .LVU2908
	salq	$4, %r15
	andq	%rdx, %r15
	.loc 1 231 327 view .LVU2909
	orq	%r15, %rbp
	.loc 1 231 280 view .LVU2910
	movq	%rbp, 8(%rax)
	.loc 1 231 375 is_stmt 1 view .LVU2911
	.loc 1 231 423 is_stmt 0 view .LVU2912
	movq	%rbp, %r10
	shrq	$2, %r10
	andq	%r11, %r10
	.loc 1 231 470 view .LVU2913
	salq	$2, %rbp
	andq	%r9, %rbp
	.loc 1 231 431 view .LVU2914
	orq	%rbp, %r10
	.loc 1 231 384 view .LVU2915
	movq	%r10, 8(%rax)
	.loc 1 231 479 is_stmt 1 view .LVU2916
	.loc 1 231 527 is_stmt 0 view .LVU2917
	movq	%r10, %rbp
	shrq	%rbp
	andq	%r8, %rbp
	.loc 1 231 574 view .LVU2918
	addq	%r10, %r10
	andq	%rdi, %r10
	.loc 1 231 535 view .LVU2919
	orq	%rbp, %r10
	.loc 1 231 488 view .LVU2920
	movq	%r10, 8(%rax)
	.loc 1 231 582 is_stmt 1 view .LVU2921
	.loc 1 232 5 view .LVU2922
	.loc 1 232 37 is_stmt 0 view .LVU2923
	movq	24(%rsi), %rbp
	rolq	$32, %rbp
	.loc 1 232 14 view .LVU2924
	movq	%rbp, 16(%rax)
	.loc 1 232 61 is_stmt 1 view .LVU2925
	.loc 1 232 109 is_stmt 0 view .LVU2926
	movq	%rbp, %r10
	shrq	$16, %r10
	andq	%r14, %r10
	.loc 1 232 157 view .LVU2927
	salq	$16, %rbp
	andq	%r13, %rbp
	.loc 1 232 118 view .LVU2928
	orq	%rbp, %r10
	.loc 1 232 70 view .LVU2929
	movq	%r10, 16(%rax)
	.loc 1 232 167 is_stmt 1 view .LVU2930
	.loc 1 232 215 is_stmt 0 view .LVU2931
	movq	%r10, %r15
	shrq	$8, %r15
	andq	%r12, %r15
	.loc 1 232 262 view .LVU2932
	salq	$8, %r10
	andq	%rcx, %r10
	.loc 1 232 223 view .LVU2933
	orq	%r10, %r15
	.loc 1 232 176 view .LVU2934
	movq	%r15, 16(%rax)
	.loc 1 232 271 is_stmt 1 view .LVU2935
	.loc 1 232 319 is_stmt 0 view .LVU2936
	movq	%r15, %rbp
	shrq	$4, %rbp
	andq	%rbx, %rbp
	.loc 1 232 366 view .LVU2937
	salq	$4, %r15
	andq	%rdx, %r15
	.loc 1 232 327 view .LVU2938
	orq	%r15, %rbp
	.loc 1 232 280 view .LVU2939
	movq	%rbp, 16(%rax)
	.loc 1 232 375 is_stmt 1 view .LVU2940
	.loc 1 232 423 is_stmt 0 view .LVU2941
	movq	%rbp, %r10
	shrq	$2, %r10
	andq	%r11, %r10
	.loc 1 232 470 view .LVU2942
	salq	$2, %rbp
	andq	%r9, %rbp
	.loc 1 232 431 view .LVU2943
	orq	%rbp, %r10
	.loc 1 232 384 view .LVU2944
	movq	%r10, 16(%rax)
	.loc 1 232 479 is_stmt 1 view .LVU2945
	.loc 1 232 527 is_stmt 0 view .LVU2946
	movq	%r10, %rbp
	shrq	%rbp
	andq	%r8, %rbp
	.loc 1 232 574 view .LVU2947
	addq	%r10, %r10
	andq	%rdi, %r10
	.loc 1 232 535 view .LVU2948
	orq	%rbp, %r10
	.loc 1 232 488 view .LVU2949
	movq	%r10, 16(%rax)
	.loc 1 232 582 is_stmt 1 view .LVU2950
	.loc 1 233 5 view .LVU2951
	.loc 1 233 37 is_stmt 0 view .LVU2952
	movq	16(%rsi), %rbp
	rolq	$32, %rbp
	.loc 1 233 14 view .LVU2953
	movq	%rbp, 24(%rax)
	.loc 1 233 61 is_stmt 1 view .LVU2954
	.loc 1 233 109 is_stmt 0 view .LVU2955
	movq	%rbp, %r10
	shrq	$16, %r10
	andq	%r14, %r10
	.loc 1 233 157 view .LVU2956
	salq	$16, %rbp
	andq	%r13, %rbp
	.loc 1 233 118 view .LVU2957
	orq	%rbp, %r10
	.loc 1 233 70 view .LVU2958
	movq	%r10, 24(%rax)
	.loc 1 233 167 is_stmt 1 view .LVU2959
	.loc 1 233 215 is_stmt 0 view .LVU2960
	movq	%r10, %r15
	shrq	$8, %r15
	andq	%r12, %r15
	.loc 1 233 262 view .LVU2961
	salq	$8, %r10
	andq	%rcx, %r10
	.loc 1 233 223 view .LVU2962
	orq	%r10, %r15
	.loc 1 233 176 view .LVU2963
	movq	%r15, 24(%rax)
	.loc 1 233 271 is_stmt 1 view .LVU2964
	.loc 1 233 319 is_stmt 0 view .LVU2965
	movq	%r15, %rbp
	shrq	$4, %rbp
	andq	%rbx, %rbp
	.loc 1 233 366 view .LVU2966
	salq	$4, %r15
	andq	%rdx, %r15
	.loc 1 233 327 view .LVU2967
	orq	%r15, %rbp
	.loc 1 233 280 view .LVU2968
	movq	%rbp, 24(%rax)
	.loc 1 233 375 is_stmt 1 view .LVU2969
	.loc 1 233 423 is_stmt 0 view .LVU2970
	movq	%rbp, %r10
	shrq	$2, %r10
	andq	%r11, %r10
	.loc 1 233 470 view .LVU2971
	salq	$2, %rbp
	andq	%r9, %rbp
	.loc 1 233 431 view .LVU2972
	orq	%rbp, %r10
	.loc 1 233 384 view .LVU2973
	movq	%r10, 24(%rax)
	.loc 1 233 479 is_stmt 1 view .LVU2974
	.loc 1 233 527 is_stmt 0 view .LVU2975
	movq	%r10, %rbp
	shrq	%rbp
	andq	%r8, %rbp
	.loc 1 233 574 view .LVU2976
	addq	%r10, %r10
	andq	%rdi, %r10
	.loc 1 233 535 view .LVU2977
	orq	%rbp, %r10
	.loc 1 233 488 view .LVU2978
	movq	%r10, 24(%rax)
	.loc 1 233 582 is_stmt 1 view .LVU2979
	.loc 1 234 5 view .LVU2980
	.loc 1 234 37 is_stmt 0 view .LVU2981
	movq	8(%rsi), %rbp
	rolq	$32, %rbp
	.loc 1 234 14 view .LVU2982
	movq	%rbp, 32(%rax)
	.loc 1 234 61 is_stmt 1 view .LVU2983
	.loc 1 234 109 is_stmt 0 view .LVU2984
	movq	%rbp, %r10
	shrq	$16, %r10
	andq	%r14, %r10
	.loc 1 234 157 view .LVU2985
	salq	$16, %rbp
	andq	%r13, %rbp
	.loc 1 234 118 view .LVU2986
	orq	%rbp, %r10
	.loc 1 234 70 view .LVU2987
	movq	%r10, 32(%rax)
	.loc 1 234 167 is_stmt 1 view .LVU2988
	.loc 1 234 215 is_stmt 0 view .LVU2989
	movq	%r10, %r15
	shrq	$8, %r15
	andq	%r12, %r15
	.loc 1 234 262 view .LVU2990
	salq	$8, %r10
	andq	%rcx, %r10
	.loc 1 234 223 view .LVU2991
	orq	%r10, %r15
	.loc 1 234 176 view .LVU2992
	movq	%r15, 32(%rax)
	.loc 1 234 271 is_stmt 1 view .LVU2993
	.loc 1 234 319 is_stmt 0 view .LVU2994
	movq	%r15, %rbp
	shrq	$4, %rbp
	andq	%rbx, %rbp
	.loc 1 234 366 view .LVU2995
	salq	$4, %r15
	andq	%rdx, %r15
	.loc 1 234 327 view .LVU2996
	orq	%r15, %rbp
	.loc 1 234 280 view .LVU2997
	movq	%rbp, 32(%rax)
	.loc 1 234 375 is_stmt 1 view .LVU2998
	.loc 1 234 423 is_stmt 0 view .LVU2999
	movq	%rbp, %r10
	shrq	$2, %r10
	andq	%r11, %r10
	.loc 1 234 470 view .LVU3000
	salq	$2, %rbp
	andq	%r9, %rbp
	.loc 1 234 431 view .LVU3001
	orq	%rbp, %r10
	.loc 1 234 384 view .LVU3002
	movq	%r10, 32(%rax)
	.loc 1 234 479 is_stmt 1 view .LVU3003
	.loc 1 234 527 is_stmt 0 view .LVU3004
	movq	%r10, %rbp
	shrq	%rbp
	andq	%r8, %rbp
	.loc 1 234 574 view .LVU3005
	addq	%r10, %r10
	andq	%rdi, %r10
	.loc 1 234 535 view .LVU3006
	orq	%rbp, %r10
	.loc 1 234 488 view .LVU3007
	movq	%r10, 32(%rax)
	.loc 1 234 582 is_stmt 1 view .LVU3008
	.loc 1 235 5 view .LVU3009
	.loc 1 235 21 is_stmt 0 view .LVU3010
	movq	(%rsi), %rsi
.LVL75:
	.loc 1 235 37 view .LVU3011
	rolq	$32, %rsi
	.loc 1 235 14 view .LVU3012
	movq	%rsi, 40(%rax)
	.loc 1 235 61 is_stmt 1 view .LVU3013
	.loc 1 235 109 is_stmt 0 view .LVU3014
	movq	%rsi, %r10
	shrq	$16, %r10
	andq	%r14, %r10
	.loc 1 235 157 view .LVU3015
	salq	$16, %rsi
	andq	%rsi, %r13
	.loc 1 235 118 view .LVU3016
	orq	%r13, %r10
	.loc 1 235 70 view .LVU3017
	movq	%r10, 40(%rax)
	.loc 1 235 167 is_stmt 1 view .LVU3018
	.loc 1 235 215 is_stmt 0 view .LVU3019
	movq	%r10, %rsi
	shrq	$8, %rsi
	andq	%r12, %rsi
	.loc 1 235 262 view .LVU3020
	salq	$8, %r10
	andq	%rcx, %r10
	.loc 1 235 223 view .LVU3021
	orq	%r10, %rsi
	.loc 1 235 176 view .LVU3022
	movq	%rsi, 40(%rax)
	.loc 1 235 271 is_stmt 1 view .LVU3023
	.loc 1 235 319 is_stmt 0 view .LVU3024
	movq	%rsi, %rcx
	shrq	$4, %rcx
	andq	%rbx, %rcx
	.loc 1 235 366 view .LVU3025
	salq	$4, %rsi
	andq	%rdx, %rsi
	.loc 1 235 327 view .LVU3026
	orq	%rsi, %rcx
	.loc 1 235 280 view .LVU3027
	movq	%rcx, 40(%rax)
	.loc 1 235 375 is_stmt 1 view .LVU3028
	.loc 1 235 423 is_stmt 0 view .LVU3029
	movq	%rcx, %rdx
	shrq	$2, %rdx
	andq	%r11, %rdx
	.loc 1 235 470 view .LVU3030
	salq	$2, %rcx
	andq	%r9, %rcx
	.loc 1 235 431 view .LVU3031
	orq	%rcx, %rdx
	.loc 1 235 384 view .LVU3032
	movq	%rdx, 40(%rax)
	.loc 1 235 479 is_stmt 1 view .LVU3033
	.loc 1 235 527 is_stmt 0 view .LVU3034
	movq	%rdx, %rcx
	shrq	%rcx
	andq	%rcx, %r8
	.loc 1 235 574 view .LVU3035
	addq	%rdx, %rdx
	andq	%rdi, %rdx
	.loc 1 235 535 view .LVU3036
	orq	%r8, %rdx
	.loc 1 235 488 view .LVU3037
	movq	%rdx, 40(%rax)
	.loc 1 235 582 is_stmt 1 view .LVU3038
	.loc 1 237 5 view .LVU3039
	.loc 1 238 1 is_stmt 0 view .LVU3040
	popq	%rbx
	.cfi_def_cfa_offset 48
	popq	%rbp
	.cfi_def_cfa_offset 40
	popq	%r12
	.cfi_def_cfa_offset 32
	popq	%r13
	.cfi_def_cfa_offset 24
	popq	%r14
	.cfi_def_cfa_offset 16
	popq	%r15
	.cfi_def_cfa_offset 8
	ret
	.cfi_endproc
.LFE33:
	.size	biguint_rev, .-biguint_rev
	.globl	biguint_eq
	.type	biguint_eq, @function
biguint_eq:
.LVL76:
.LFB34:
	.loc 1 242 1 is_stmt 1 view -0
	.cfi_startproc
	.loc 1 243 5 view .LVU3042
	.loc 1 244 69 is_stmt 0 view .LVU3043
	movq	(%rsi), %rax
	cmpq	%rax, (%rdi)
	je	.L1052
	movl	$0, %eax
	ret
.L1052:
	.loc 1 243 37 view .LVU3044
	movq	8(%rsi), %rax
	cmpq	%rax, 8(%rdi)
	je	.L1053
	.loc 1 244 69 view .LVU3045
	movl	$0, %eax
	ret
.L1053:
	.loc 1 243 65 discriminator 1 view .LVU3046
	movq	16(%rsi), %rax
	cmpq	%rax, 16(%rdi)
	je	.L1054
	.loc 1 244 69 view .LVU3047
	movl	$0, %eax
	ret
.L1054:
	.loc 1 244 13 discriminator 3 view .LVU3048
	movq	24(%rsi), %rax
	cmpq	%rax, 24(%rdi)
	je	.L1055
	.loc 1 244 69 view .LVU3049
	movl	$0, %eax
	ret
.L1055:
	.loc 1 244 41 discriminator 2 view .LVU3050
	movq	32(%rsi), %rax
	cmpq	%rax, 32(%rdi)
	je	.L1056
	.loc 1 244 69 view .LVU3051
	movl	$0, %eax
	ret
.L1056:
	.loc 1 244 69 discriminator 4 view .LVU3052
	movq	40(%rsi), %rax
	cmpq	%rax, 40(%rdi)
	je	.L1051
	.loc 1 244 69 view .LVU3053
	movl	$0, %eax
	ret
.L1051:
	movl	$1, %eax
	.loc 1 245 1 view .LVU3054
	ret
	.cfi_endproc
.LFE34:
	.size	biguint_eq, .-biguint_eq
	.globl	biguint_neq
	.type	biguint_neq, @function
biguint_neq:
.LVL77:
.LFB35:
	.loc 1 247 1 is_stmt 1 view -0
	.cfi_startproc
	.loc 1 248 5 view .LVU3056
	.loc 1 249 69 is_stmt 0 view .LVU3057
	movq	(%rsi), %rax
	cmpq	%rax, (%rdi)
	je	.L1065
	movl	$1, %eax
	ret
.L1065:
	.loc 1 248 37 view .LVU3058
	movq	8(%rsi), %rax
	cmpq	%rax, 8(%rdi)
	je	.L1066
	.loc 1 249 69 view .LVU3059
	movl	$1, %eax
	ret
.L1066:
	.loc 1 248 65 discriminator 1 view .LVU3060
	movq	16(%rsi), %rax
	cmpq	%rax, 16(%rdi)
	je	.L1067
	.loc 1 249 69 view .LVU3061
	movl	$1, %eax
	ret
.L1067:
	.loc 1 249 13 discriminator 2 view .LVU3062
	movq	24(%rsi), %rax
	cmpq	%rax, 24(%rdi)
	je	.L1068
	.loc 1 249 69 view .LVU3063
	movl	$1, %eax
	ret
.L1068:
	.loc 1 249 41 discriminator 3 view .LVU3064
	movq	32(%rsi), %rax
	cmpq	%rax, 32(%rdi)
	je	.L1069
	.loc 1 249 69 view .LVU3065
	movl	$1, %eax
	ret
.L1069:
	.loc 1 249 69 discriminator 5 view .LVU3066
	movq	40(%rsi), %rax
	cmpq	%rax, 40(%rdi)
	je	.L1064
	.loc 1 249 69 view .LVU3067
	movl	$1, %eax
	ret
.L1064:
	movl	$0, %eax
	.loc 1 250 1 view .LVU3068
	ret
	.cfi_endproc
.LFE35:
	.size	biguint_neq, .-biguint_neq
	.globl	biguint_gt
	.type	biguint_gt, @function
biguint_gt:
.LVL78:
.LFB36:
	.loc 1 253 1 is_stmt 1 view -0
	.cfi_startproc
	.loc 1 254 5 view .LVU3070
	.loc 1 254 17 is_stmt 0 view .LVU3071
	movq	(%rdi), %rdx
	.loc 1 254 29 view .LVU3072
	movq	(%rsi), %rax
	.loc 1 254 36 view .LVU3073
	cmpq	%rax, %rdx
	ja	.L1072
	.loc 1 254 36 discriminator 2 view .LVU3074
	je	.L1083
	.loc 1 254 36 view .LVU3075
	movl	$0, %eax
	ret
.L1083:
	.loc 1 255 45 view .LVU3076
	movq	8(%rdi), %rdx
	.loc 1 255 57 view .LVU3077
	movq	8(%rsi), %rax
	.loc 1 255 37 view .LVU3078
	cmpq	%rax, %rdx
	ja	.L1074
	.loc 1 255 64 discriminator 1 view .LVU3079
	je	.L1084
	.loc 1 254 36 view .LVU3080
	movl	$0, %eax
	ret
.L1084:
	.loc 1 256 72 view .LVU3081
	movq	16(%rdi), %rdx
	.loc 1 256 84 view .LVU3082
	movq	16(%rsi), %rax
	.loc 1 256 64 view .LVU3083
	cmpq	%rax, %rdx
	ja	.L1076
	.loc 1 256 91 discriminator 1 view .LVU3084
	je	.L1085
	.loc 1 254 36 view .LVU3085
	movl	$0, %eax
	ret
.L1085:
	.loc 1 257 99 view .LVU3086
	movq	24(%rdi), %rdx
	.loc 1 257 111 view .LVU3087
	movq	24(%rsi), %rax
	.loc 1 257 91 view .LVU3088
	cmpq	%rax, %rdx
	ja	.L1078
	.loc 1 257 118 discriminator 1 view .LVU3089
	je	.L1086
	.loc 1 254 36 view .LVU3090
	movl	$0, %eax
	ret
.L1086:
	.loc 1 258 126 view .LVU3091
	movq	32(%rdi), %rdx
	.loc 1 258 138 view .LVU3092
	movq	32(%rsi), %rax
	.loc 1 258 118 view .LVU3093
	cmpq	%rax, %rdx
	ja	.L1080
	.loc 1 258 145 discriminator 1 view .LVU3094
	je	.L1087
	.loc 1 254 36 view .LVU3095
	movl	$0, %eax
	ret
.L1087:
	.loc 1 259 145 view .LVU3096
	movq	40(%rsi), %rax
	cmpq	%rax, 40(%rdi)
	ja	.L1082
	.loc 1 254 36 view .LVU3097
	movl	$0, %eax
	ret
.L1072:
	.loc 1 254 36 view .LVU3098
	movl	$1, %eax
	ret
.L1074:
	.loc 1 254 36 view .LVU3099
	movl	$1, %eax
	ret
.L1076:
	.loc 1 254 36 view .LVU3100
	movl	$1, %eax
	ret
.L1078:
	.loc 1 254 36 view .LVU3101
	movl	$1, %eax
	ret
.L1080:
	.loc 1 254 36 view .LVU3102
	movl	$1, %eax
	ret
.L1082:
	.loc 1 254 36 view .LVU3103
	movl	$1, %eax
	.loc 1 260 1 view .LVU3104
	ret
	.cfi_endproc
.LFE36:
	.size	biguint_gt, .-biguint_gt
	.globl	biguint_gteq
	.type	biguint_gteq, @function
biguint_gteq:
.LVL79:
.LFB37:
	.loc 1 262 1 is_stmt 1 view -0
	.cfi_startproc
	.loc 1 263 5 view .LVU3106
	.loc 1 263 17 is_stmt 0 view .LVU3107
	movq	(%rdi), %rdx
	.loc 1 263 29 view .LVU3108
	movq	(%rsi), %rax
	.loc 1 263 36 view .LVU3109
	cmpq	%rax, %rdx
	ja	.L1090
	.loc 1 263 36 discriminator 2 view .LVU3110
	je	.L1102
	.loc 1 263 36 view .LVU3111
	movl	$0, %eax
	ret
.L1102:
	.loc 1 264 45 view .LVU3112
	movq	8(%rdi), %rdx
	.loc 1 264 57 view .LVU3113
	movq	8(%rsi), %rax
	.loc 1 264 37 view .LVU3114
	cmpq	%rax, %rdx
	ja	.L1092
	.loc 1 264 64 discriminator 1 view .LVU3115
	je	.L1103
	.loc 1 263 36 view .LVU3116
	movl	$0, %eax
	ret
.L1103:
	.loc 1 265 72 view .LVU3117
	movq	16(%rdi), %rdx
	.loc 1 265 84 view .LVU3118
	movq	16(%rsi), %rax
	.loc 1 265 64 view .LVU3119
	cmpq	%rax, %rdx
	ja	.L1094
	.loc 1 265 91 discriminator 1 view .LVU3120
	je	.L1104
	.loc 1 263 36 view .LVU3121
	movl	$0, %eax
	ret
.L1104:
	.loc 1 266 99 view .LVU3122
	movq	24(%rdi), %rdx
	.loc 1 266 111 view .LVU3123
	movq	24(%rsi), %rax
	.loc 1 266 91 view .LVU3124
	cmpq	%rax, %rdx
	ja	.L1096
	.loc 1 266 118 discriminator 1 view .LVU3125
	je	.L1105
	.loc 1 263 36 view .LVU3126
	movl	$0, %eax
	ret
.L1105:
	.loc 1 267 126 view .LVU3127
	movq	32(%rdi), %rdx
	.loc 1 267 138 view .LVU3128
	movq	32(%rsi), %rax
	.loc 1 267 118 view .LVU3129
	cmpq	%rax, %rdx
	ja	.L1098
	.loc 1 267 145 discriminator 1 view .LVU3130
	je	.L1106
	.loc 1 263 36 view .LVU3131
	movl	$0, %eax
	ret
.L1106:
	.loc 1 268 153 view .LVU3132
	movq	40(%rdi), %rdx
	.loc 1 268 165 view .LVU3133
	movq	40(%rsi), %rax
	.loc 1 268 145 view .LVU3134
	cmpq	%rax, %rdx
	ja	.L1100
	.loc 1 268 172 discriminator 1 view .LVU3135
	je	.L1101
	.loc 1 263 36 view .LVU3136
	movl	$0, %eax
	ret
.L1090:
	.loc 1 263 36 view .LVU3137
	movl	$1, %eax
	ret
.L1092:
	.loc 1 263 36 view .LVU3138
	movl	$1, %eax
	ret
.L1094:
	.loc 1 263 36 view .LVU3139
	movl	$1, %eax
	ret
.L1096:
	.loc 1 263 36 view .LVU3140
	movl	$1, %eax
	ret
.L1098:
	.loc 1 263 36 view .LVU3141
	movl	$1, %eax
	ret
.L1100:
	.loc 1 263 36 view .LVU3142
	movl	$1, %eax
	ret
.L1101:
	movl	$1, %eax
	.loc 1 270 1 view .LVU3143
	ret
	.cfi_endproc
.LFE37:
	.size	biguint_gteq, .-biguint_gteq
	.globl	biguint_lt
	.type	biguint_lt, @function
biguint_lt:
.LVL80:
.LFB38:
	.loc 1 273 1 is_stmt 1 view -0
	.cfi_startproc
	.loc 1 274 5 view .LVU3145
	.loc 1 274 17 is_stmt 0 view .LVU3146
	movq	(%rdi), %rdx
	.loc 1 274 29 view .LVU3147
	movq	(%rsi), %rax
	.loc 1 274 36 view .LVU3148
	cmpq	%rax, %rdx
	jb	.L1109
	.loc 1 274 36 discriminator 2 view .LVU3149
	je	.L1120
	.loc 1 274 36 view .LVU3150
	movl	$0, %eax
	ret
.L1120:
	.loc 1 275 45 view .LVU3151
	movq	8(%rdi), %rdx
	.loc 1 275 57 view .LVU3152
	movq	8(%rsi), %rax
	.loc 1 275 37 view .LVU3153
	cmpq	%rax, %rdx
	jb	.L1111
	.loc 1 275 64 discriminator 1 view .LVU3154
	je	.L1121
	.loc 1 274 36 view .LVU3155
	movl	$0, %eax
	ret
.L1121:
	.loc 1 276 72 view .LVU3156
	movq	16(%rdi), %rdx
	.loc 1 276 84 view .LVU3157
	movq	16(%rsi), %rax
	.loc 1 276 64 view .LVU3158
	cmpq	%rax, %rdx
	jb	.L1113
	.loc 1 276 91 discriminator 1 view .LVU3159
	je	.L1122
	.loc 1 274 36 view .LVU3160
	movl	$0, %eax
	ret
.L1122:
	.loc 1 277 99 view .LVU3161
	movq	24(%rdi), %rdx
	.loc 1 277 111 view .LVU3162
	movq	24(%rsi), %rax
	.loc 1 277 91 view .LVU3163
	cmpq	%rax, %rdx
	jb	.L1115
	.loc 1 277 118 discriminator 1 view .LVU3164
	je	.L1123
	.loc 1 274 36 view .LVU3165
	movl	$0, %eax
	ret
.L1123:
	.loc 1 278 126 view .LVU3166
	movq	32(%rdi), %rdx
	.loc 1 278 138 view .LVU3167
	movq	32(%rsi), %rax
	.loc 1 278 118 view .LVU3168
	cmpq	%rax, %rdx
	jb	.L1117
	.loc 1 278 145 discriminator 1 view .LVU3169
	je	.L1124
	.loc 1 274 36 view .LVU3170
	movl	$0, %eax
	ret
.L1124:
	.loc 1 279 145 view .LVU3171
	movq	40(%rsi), %rax
	cmpq	%rax, 40(%rdi)
	jb	.L1119
	.loc 1 274 36 view .LVU3172
	movl	$0, %eax
	ret
.L1109:
	.loc 1 274 36 view .LVU3173
	movl	$1, %eax
	ret
.L1111:
	.loc 1 274 36 view .LVU3174
	movl	$1, %eax
	ret
.L1113:
	.loc 1 274 36 view .LVU3175
	movl	$1, %eax
	ret
.L1115:
	.loc 1 274 36 view .LVU3176
	movl	$1, %eax
	ret
.L1117:
	.loc 1 274 36 view .LVU3177
	movl	$1, %eax
	ret
.L1119:
	.loc 1 274 36 view .LVU3178
	movl	$1, %eax
	.loc 1 280 1 view .LVU3179
	ret
	.cfi_endproc
.LFE38:
	.size	biguint_lt, .-biguint_lt
	.globl	biguint_lteq
	.type	biguint_lteq, @function
biguint_lteq:
.LVL81:
.LFB39:
	.loc 1 282 1 is_stmt 1 view -0
	.cfi_startproc
	.loc 1 283 5 view .LVU3181
	.loc 1 283 17 is_stmt 0 view .LVU3182
	movq	(%rdi), %rdx
	.loc 1 283 29 view .LVU3183
	movq	(%rsi), %rax
	.loc 1 283 36 view .LVU3184
	cmpq	%rax, %rdx
	jb	.L1127
	.loc 1 283 36 discriminator 2 view .LVU3185
	je	.L1139
	.loc 1 283 36 view .LVU3186
	movl	$0, %eax
	ret
.L1139:
	.loc 1 284 45 view .LVU3187
	movq	8(%rdi), %rdx
	.loc 1 284 57 view .LVU3188
	movq	8(%rsi), %rax
	.loc 1 284 37 view .LVU3189
	cmpq	%rax, %rdx
	jb	.L1129
	.loc 1 284 64 discriminator 1 view .LVU3190
	je	.L1140
	.loc 1 283 36 view .LVU3191
	movl	$0, %eax
	ret
.L1140:
	.loc 1 285 72 view .LVU3192
	movq	16(%rdi), %rdx
	.loc 1 285 84 view .LVU3193
	movq	16(%rsi), %rax
	.loc 1 285 64 view .LVU3194
	cmpq	%rax, %rdx
	jb	.L1131
	.loc 1 285 91 discriminator 1 view .LVU3195
	je	.L1141
	.loc 1 283 36 view .LVU3196
	movl	$0, %eax
	ret
.L1141:
	.loc 1 286 99 view .LVU3197
	movq	24(%rdi), %rdx
	.loc 1 286 111 view .LVU3198
	movq	24(%rsi), %rax
	.loc 1 286 91 view .LVU3199
	cmpq	%rax, %rdx
	jb	.L1133
	.loc 1 286 118 discriminator 1 view .LVU3200
	je	.L1142
	.loc 1 283 36 view .LVU3201
	movl	$0, %eax
	ret
.L1142:
	.loc 1 287 126 view .LVU3202
	movq	32(%rdi), %rdx
	.loc 1 287 138 view .LVU3203
	movq	32(%rsi), %rax
	.loc 1 287 118 view .LVU3204
	cmpq	%rax, %rdx
	jb	.L1135
	.loc 1 287 145 discriminator 1 view .LVU3205
	je	.L1143
	.loc 1 283 36 view .LVU3206
	movl	$0, %eax
	ret
.L1143:
	.loc 1 288 153 view .LVU3207
	movq	40(%rdi), %rdx
	.loc 1 288 165 view .LVU3208
	movq	40(%rsi), %rax
	.loc 1 288 145 view .LVU3209
	cmpq	%rax, %rdx
	jb	.L1137
	.loc 1 288 172 discriminator 1 view .LVU3210
	je	.L1138
	.loc 1 283 36 view .LVU3211
	movl	$0, %eax
	ret
.L1127:
	.loc 1 283 36 view .LVU3212
	movl	$1, %eax
	ret
.L1129:
	.loc 1 283 36 view .LVU3213
	movl	$1, %eax
	ret
.L1131:
	.loc 1 283 36 view .LVU3214
	movl	$1, %eax
	ret
.L1133:
	.loc 1 283 36 view .LVU3215
	movl	$1, %eax
	ret
.L1135:
	.loc 1 283 36 view .LVU3216
	movl	$1, %eax
	ret
.L1137:
	.loc 1 283 36 view .LVU3217
	movl	$1, %eax
	ret
.L1138:
	movl	$1, %eax
	.loc 1 290 1 view .LVU3218
	ret
	.cfi_endproc
.LFE39:
	.size	biguint_lteq, .-biguint_lteq
	.globl	biguint_inc
	.type	biguint_inc, @function
biguint_inc:
.LVL82:
.LFB40:
	.loc 1 294 1 is_stmt 1 view -0
	.cfi_startproc
	.loc 1 294 1 is_stmt 0 view .LVU3220
	movq	%rdi, %rax
	.loc 1 295 5 is_stmt 1 view .LVU3221
	.loc 1 295 13 is_stmt 0 view .LVU3222
	movq	40(%rdi), %rsi
	leaq	1(%rsi), %rdx
	movq	%rdx, 40(%rdi)
	.loc 1 296 5 is_stmt 1 view .LVU3223
	.loc 1 296 17 is_stmt 0 view .LVU3224
	testq	%rdx, %rdx
	sete	%cl
	movzbl	%cl, %ecx
	.loc 1 296 14 view .LVU3225
	addq	32(%rdi), %rcx
	movq	%rcx, 32(%rdi)
	.loc 1 297 5 is_stmt 1 view .LVU3226
	.loc 1 297 27 is_stmt 0 view .LVU3227
	orq	%rcx, %rdx
	sete	%cl
	movzbl	%cl, %ecx
	.loc 1 297 14 view .LVU3228
	addq	24(%rdi), %rcx
	movq	%rcx, 24(%rdi)
	.loc 1 298 5 is_stmt 1 view .LVU3229
	.loc 1 298 39 is_stmt 0 view .LVU3230
	orq	%rcx, %rdx
	sete	%cl
	movzbl	%cl, %ecx
	.loc 1 298 14 view .LVU3231
	addq	16(%rdi), %rcx
	movq	%rcx, 16(%rdi)
	.loc 1 299 5 is_stmt 1 view .LVU3232
	.loc 1 299 51 is_stmt 0 view .LVU3233
	orq	%rcx, %rdx
	sete	%cl
	movzbl	%cl, %ecx
	.loc 1 299 14 view .LVU3234
	addq	8(%rdi), %rcx
	movq	%rcx, 8(%rdi)
	.loc 1 300 5 is_stmt 1 view .LVU3235
	.loc 1 300 63 is_stmt 0 view .LVU3236
	orq	%rcx, %rdx
	sete	%dl
	movzbl	%dl, %edx
	.loc 1 300 14 view .LVU3237
	addq	%rdx, (%rdi)
	.loc 1 302 5 is_stmt 1 view .LVU3238
	.loc 1 303 1 is_stmt 0 view .LVU3239
	ret
	.cfi_endproc
.LFE40:
	.size	biguint_inc, .-biguint_inc
	.globl	biguint_add
	.type	biguint_add, @function
biguint_add:
.LVL83:
.LFB41:
	.loc 1 305 1 is_stmt 1 view -0
	.cfi_startproc
	.loc 1 306 5 view .LVU3241
	.loc 1 307 5 view .LVU3242
	.loc 1 307 32 is_stmt 0 view .LVU3243
	movq	40(%rdx), %rax
	.loc 1 307 26 view .LVU3244
	addq	40(%rsi), %rax
	.loc 1 307 14 view .LVU3245
	movq	%rax, 40(%rdi)
	.loc 1 309 5 is_stmt 1 view .LVU3246
	.loc 1 309 13 is_stmt 0 view .LVU3247
	cmpq	40(%rsi), %rax
	setb	%r8b
.LVL84:
	.loc 1 310 5 is_stmt 1 view .LVU3248
	.loc 1 310 32 is_stmt 0 view .LVU3249
	movq	32(%rdx), %rax
	.loc 1 310 26 view .LVU3250
	addq	32(%rsi), %rax
	movq	%rax, %rcx
	.loc 1 310 38 view .LVU3251
	movzbl	%r8b, %eax
	addq	%rcx, %rax
	.loc 1 310 14 view .LVU3252
	movq	%rax, 32(%rdi)
	.loc 1 312 5 is_stmt 1 view .LVU3253
	.loc 1 312 32 is_stmt 0 view .LVU3254
	movq	32(%rsi), %r9
	.loc 1 312 15 view .LVU3255
	cmpq	%r9, %rax
	setbe	%cl
	.loc 1 312 39 view .LVU3256
	andl	%r8d, %ecx
	.loc 1 312 51 view .LVU3257
	cmpq	%r9, %rax
	setb	%al
	.loc 1 312 76 view .LVU3258
	notl	%r8d
.LVL85:
	.loc 1 312 76 view .LVU3259
	andl	%eax, %r8d
	.loc 1 312 47 view .LVU3260
	orl	%ecx, %r8d
.LVL86:
	.loc 1 313 5 is_stmt 1 view .LVU3261
	.loc 1 313 32 is_stmt 0 view .LVU3262
	movq	24(%rdx), %rax
	.loc 1 313 26 view .LVU3263
	addq	24(%rsi), %rax
	movq	%rax, %rcx
	.loc 1 313 38 view .LVU3264
	movzbl	%r8b, %eax
	addq	%rcx, %rax
	.loc 1 313 14 view .LVU3265
	movq	%rax, 24(%rdi)
	.loc 1 315 5 is_stmt 1 view .LVU3266
	.loc 1 315 15 is_stmt 0 view .LVU3267
	cmpq	24(%rsi), %rax
	setbe	%cl
	.loc 1 315 51 view .LVU3268
	setb	%al
	.loc 1 315 47 view .LVU3269
	xorl	%eax, %ecx
	andl	%r8d, %ecx
	xorl	%eax, %ecx
.LVL87:
	.loc 1 316 5 is_stmt 1 view .LVU3270
	.loc 1 316 32 is_stmt 0 view .LVU3271
	movq	16(%rdx), %rax
	.loc 1 316 26 view .LVU3272
	addq	16(%rsi), %rax
	movq	%rax, %r8
	.loc 1 316 38 view .LVU3273
	movzbl	%cl, %eax
	addq	%r8, %rax
	.loc 1 316 14 view .LVU3274
	movq	%rax, 16(%rdi)
	.loc 1 318 5 is_stmt 1 view .LVU3275
	.loc 1 318 15 is_stmt 0 view .LVU3276
	cmpq	16(%rsi), %rax
	setbe	%al
	.loc 1 318 51 view .LVU3277
	setb	%r8b
	.loc 1 318 47 view .LVU3278
	xorl	%r8d, %eax
	andl	%ecx, %eax
	xorl	%r8d, %eax
	movl	%eax, %ecx
.LVL88:
	.loc 1 319 5 is_stmt 1 view .LVU3279
	.loc 1 319 32 is_stmt 0 view .LVU3280
	movq	8(%rdx), %rax
.LVL89:
	.loc 1 319 26 view .LVU3281
	addq	8(%rsi), %rax
	movq	%rax, %r8
	.loc 1 319 38 view .LVU3282
	movzbl	%cl, %eax
	addq	%r8, %rax
	.loc 1 319 14 view .LVU3283
	movq	%rax, 8(%rdi)
	.loc 1 321 5 is_stmt 1 view .LVU3284
	.loc 1 321 15 is_stmt 0 view .LVU3285
	cmpq	8(%rsi), %rax
	setbe	%al
	.loc 1 321 51 view .LVU3286
	setb	%r8b
	.loc 1 321 47 view .LVU3287
	xorl	%r8d, %eax
	andl	%ecx, %eax
	xorl	%r8d, %eax
.LVL90:
	.loc 1 322 5 is_stmt 1 view .LVU3288
	.loc 1 322 32 is_stmt 0 view .LVU3289
	movq	(%rdx), %rdx
.LVL91:
	.loc 1 322 26 view .LVU3290
	addq	(%rsi), %rdx
	.loc 1 322 38 view .LVU3291
	movzbl	%al, %eax
	.loc 1 322 38 view .LVU3292
	addq	%rdx, %rax
.LVL92:
	.loc 1 322 14 view .LVU3293
	movq	%rax, (%rdi)
	.loc 1 324 5 is_stmt 1 view .LVU3294
	.loc 1 325 1 is_stmt 0 view .LVU3295
	movq	%rdi, %rax
	ret
	.cfi_endproc
.LFE41:
	.size	biguint_add, .-biguint_add
	.globl	biguint_dec
	.type	biguint_dec, @function
biguint_dec:
.LVL93:
.LFB42:
	.loc 1 328 1 is_stmt 1 view -0
	.cfi_startproc
	.loc 1 329 5 view .LVU3297
	.loc 1 329 13 is_stmt 0 view .LVU3298
	movq	40(%rdi), %rax
	subq	$1, %rax
	movq	%rax, 40(%rdi)
	.loc 1 330 5 is_stmt 1 view .LVU3299
	.loc 1 330 17 is_stmt 0 view .LVU3300
	cmpq	$-1, %rax
	sete	%cl
	movzbl	%cl, %ecx
	.loc 1 330 14 view .LVU3301
	movq	32(%rdi), %rdx
	subq	%rcx, %rdx
	movq	%rdx, 32(%rdi)
	.loc 1 331 5 is_stmt 1 view .LVU3302
	.loc 1 331 30 is_stmt 0 view .LVU3303
	andq	%rdx, %rax
	cmpq	$-1, %rax
	sete	%cl
	movzbl	%cl, %ecx
	.loc 1 331 14 view .LVU3304
	movq	24(%rdi), %rdx
	subq	%rcx, %rdx
	movq	%rdx, 24(%rdi)
	.loc 1 332 5 is_stmt 1 view .LVU3305
	.loc 1 332 45 is_stmt 0 view .LVU3306
	andq	%rdx, %rax
	cmpq	$-1, %rax
	sete	%cl
	movzbl	%cl, %ecx
	.loc 1 332 14 view .LVU3307
	movq	16(%rdi), %rdx
	subq	%rcx, %rdx
	movq	%rdx, 16(%rdi)
	.loc 1 333 5 is_stmt 1 view .LVU3308
	.loc 1 333 60 is_stmt 0 view .LVU3309
	andq	%rdx, %rax
	cmpq	$-1, %rax
	sete	%cl
	movzbl	%cl, %ecx
	.loc 1 333 14 view .LVU3310
	movq	8(%rdi), %rdx
	subq	%rcx, %rdx
	movq	%rdx, 8(%rdi)
	.loc 1 334 5 is_stmt 1 view .LVU3311
	.loc 1 334 75 is_stmt 0 view .LVU3312
	andq	%rdx, %rax
	cmpq	$-1, %rax
	sete	%al
	movzbl	%al, %eax
	.loc 1 334 14 view .LVU3313
	subq	%rax, (%rdi)
	.loc 1 336 5 is_stmt 1 view .LVU3314
	.loc 1 337 1 is_stmt 0 view .LVU3315
	movq	%rdi, %rax
	ret
	.cfi_endproc
.LFE42:
	.size	biguint_dec, .-biguint_dec
	.globl	biguint_sub
	.type	biguint_sub, @function
biguint_sub:
.LVL94:
.LFB43:
	.loc 1 339 1 is_stmt 1 view -0
	.cfi_startproc
	.loc 1 339 1 is_stmt 0 view .LVU3317
	pushq	%rbp
	.cfi_def_cfa_offset 16
	.cfi_offset 6, -16
	pushq	%rbx
	.cfi_def_cfa_offset 24
	.cfi_offset 3, -24
	movq	%rdi, %rbx
	movq	%rsi, %rbp
	movq	%rdx, %rsi
.LVL95:
	.loc 1 340 5 is_stmt 1 view .LVU3318
	.loc 1 340 12 is_stmt 0 view .LVU3319
	call	biguint_neg
.LVL96:
	.loc 1 340 12 view .LVU3320
	movq	%rax, %rdx
	movq	%rbp, %rsi
	movq	%rbx, %rdi
	call	biguint_add
.LVL97:
	.loc 1 371 1 view .LVU3321
	popq	%rbx
	.cfi_def_cfa_offset 16
.LVL98:
	.loc 1 371 1 view .LVU3322
	popq	%rbp
	.cfi_def_cfa_offset 8
.LVL99:
	.loc 1 371 1 view .LVU3323
	ret
	.cfi_endproc
.LFE43:
	.size	biguint_sub, .-biguint_sub
	.globl	biguint_mul
	.type	biguint_mul, @function
biguint_mul:
.LVL100:
.LFB44:
	.loc 1 374 1 is_stmt 1 view -0
	.cfi_startproc
	.loc 1 374 1 is_stmt 0 view .LVU3325
	movq	%rdi, %rax
	movq	%rdx, %rcx
	.loc 1 375 5 is_stmt 1 view .LVU3326
	.loc 1 377 5 view .LVU3327
	.loc 1 377 32 is_stmt 0 view .LVU3328
	movl	(%rdx), %edx
.LVL101:
	.loc 1 377 26 view .LVU3329
	imull	(%rsi), %edx
	.loc 1 377 13 view .LVU3330
	movl	%edx, %edi
.LVL102:
	.loc 1 377 13 view .LVU3331
	movq	%rdi, -48(%rsp)
	.loc 1 378 5 is_stmt 1 view .LVU3332
	.loc 1 378 16 is_stmt 0 view .LVU3333
	movl	%edx, (%rax)
	.loc 1 379 5 is_stmt 1 view .LVU3334
	.loc 1 379 32 is_stmt 0 view .LVU3335
	movl	4(%rcx), %edi
	.loc 1 379 26 view .LVU3336
	imull	(%rsi), %edi
	.loc 1 379 13 view .LVU3337
	movl	%edi, %r8d
	movq	%r8, -40(%rsp)
	.loc 1 380 5 is_stmt 1 view .LVU3338
	.loc 1 380 32 is_stmt 0 view .LVU3339
	movl	(%rcx), %ecx
.LVL103:
	.loc 1 380 26 view .LVU3340
	imull	4(%rsi), %ecx
	.loc 1 380 13 view .LVU3341
	movq	%rcx, -32(%rsp)
	.loc 1 381 5 is_stmt 1 view .LVU3342
	.loc 1 381 56 is_stmt 0 view .LVU3343
	leal	(%rdi,%rdx,2), %edx
	.loc 1 381 16 view .LVU3344
	movl	%edx, 4(%rax)
	.loc 1 383 5 is_stmt 1 view .LVU3345
	.loc 1 384 1 is_stmt 0 view .LVU3346
	ret
	.cfi_endproc
.LFE44:
	.size	biguint_mul, .-biguint_mul
	.section	.rodata.str1.8,"aMS",@progbits,1
	.align 8
.LC0:
	.string	"0x%016lX%016lX%016lX%016lX%016lX%016lX\n"
	.text
	.globl	biguint_puthex
	.type	biguint_puthex, @function
biguint_puthex:
.LVL104:
.LFB45:
	.loc 1 391 1 is_stmt 1 view -0
	.cfi_startproc
	.loc 1 391 1 is_stmt 0 view .LVU3348
	subq	$16, %rsp
	.cfi_def_cfa_offset 24
	.loc 1 392 5 is_stmt 1 view .LVU3349
	movq	16(%rdi), %rcx
	movq	8(%rdi), %rdx
	pushq	40(%rdi)
	.cfi_def_cfa_offset 32
	movq	32(%rdi), %r9
	movq	24(%rdi), %r8
	movq	(%rdi), %rsi
	leaq	.LC0(%rip), %rdi
.LVL105:
	.loc 1 392 5 is_stmt 0 view .LVU3350
	movl	$0, %eax
	call	printf@PLT
.LVL106:
	.loc 1 393 1 view .LVU3351
	addq	$24, %rsp
	.cfi_def_cfa_offset 8
	ret
	.cfi_endproc
.LFE45:
	.size	biguint_puthex, .-biguint_puthex
	.section	.rodata.str1.8
	.align 8
.LC1:
	.string	"0x%016lX %016lX %016lX %016lX %016lX %016lX\n"
	.text
	.globl	biguint_putsephex64
	.type	biguint_putsephex64, @function
biguint_putsephex64:
.LVL107:
.LFB46:
	.loc 1 395 1 is_stmt 1 view -0
	.cfi_startproc
	.loc 1 395 1 is_stmt 0 view .LVU3353
	subq	$16, %rsp
	.cfi_def_cfa_offset 24
	.loc 1 396 5 is_stmt 1 view .LVU3354
	movq	16(%rdi), %rcx
	movq	8(%rdi), %rdx
	pushq	40(%rdi)
	.cfi_def_cfa_offset 32
	movq	32(%rdi), %r9
	movq	24(%rdi), %r8
	movq	(%rdi), %rsi
	leaq	.LC1(%rip), %rdi
.LVL108:
	.loc 1 396 5 is_stmt 0 view .LVU3355
	movl	$0, %eax
	call	printf@PLT
.LVL109:
	.loc 1 397 1 view .LVU3356
	addq	$24, %rsp
	.cfi_def_cfa_offset 8
	ret
	.cfi_endproc
.LFE46:
	.size	biguint_putsephex64, .-biguint_putsephex64
.Letext0:
	.file 2 "/usr/include/x86_64-linux-gnu/bits/types.h"
	.file 3 "/usr/include/x86_64-linux-gnu/bits/stdint-intn.h"
	.file 4 "/usr/include/x86_64-linux-gnu/bits/stdint-uintn.h"
	.file 5 "/usr/local/include/stdmoh.h"
	.file 6 "src/bignum.h"
	.file 7 "/usr/include/stdio.h"
	.section	.note.GNU-stack,"",@progbits
